ARM GAS  C:\Users\Arturo\AppData\Local\Temp\ccqLgz19.s 			page 1


   1              		.syntax unified
   2              		.cpu cortex-m0
   3              		.fpu softvfp
   4              		.eabi_attribute 20, 1
   5              		.eabi_attribute 21, 1
   6              		.eabi_attribute 23, 3
   7              		.eabi_attribute 24, 1
   8              		.eabi_attribute 25, 1
   9              		.eabi_attribute 26, 1
  10              		.eabi_attribute 30, 6
  11              		.eabi_attribute 34, 0
  12              		.eabi_attribute 18, 4
  13              		.thumb
  14              		.syntax unified
  15              		.file	"SetTime_ISR.c"
  16              		.text
  17              	.Ltext0:
  18              		.cfi_sections	.debug_frame
  19              		.section	.text.SetTime_ISR_Start,"ax",%progbits
  20              		.align	2
  21              		.global	SetTime_ISR_Start
  22              		.code	16
  23              		.thumb_func
  24              		.type	SetTime_ISR_Start, %function
  25              	SetTime_ISR_Start:
  26              	.LFB32:
  27              		.file 1 "Generated_Source\\PSoC4\\SetTime_ISR.c"
   1:Generated_Source\PSoC4/SetTime_ISR.c **** /*******************************************************************************
   2:Generated_Source\PSoC4/SetTime_ISR.c **** * File Name: SetTime_ISR.c  
   3:Generated_Source\PSoC4/SetTime_ISR.c **** * Version 1.71
   4:Generated_Source\PSoC4/SetTime_ISR.c **** *
   5:Generated_Source\PSoC4/SetTime_ISR.c **** *  Description:
   6:Generated_Source\PSoC4/SetTime_ISR.c **** *   API for controlling the state of an interrupt.
   7:Generated_Source\PSoC4/SetTime_ISR.c **** *
   8:Generated_Source\PSoC4/SetTime_ISR.c **** *
   9:Generated_Source\PSoC4/SetTime_ISR.c **** *  Note:
  10:Generated_Source\PSoC4/SetTime_ISR.c **** *
  11:Generated_Source\PSoC4/SetTime_ISR.c **** ********************************************************************************
  12:Generated_Source\PSoC4/SetTime_ISR.c **** * Copyright 2008-2015, Cypress Semiconductor Corporation.  All rights reserved.
  13:Generated_Source\PSoC4/SetTime_ISR.c **** * You may use this file only in accordance with the license, terms, conditions, 
  14:Generated_Source\PSoC4/SetTime_ISR.c **** * disclaimers, and limitations in the end user license agreement accompanying 
  15:Generated_Source\PSoC4/SetTime_ISR.c **** * the software package with which this file was provided.
  16:Generated_Source\PSoC4/SetTime_ISR.c **** *******************************************************************************/
  17:Generated_Source\PSoC4/SetTime_ISR.c **** 
  18:Generated_Source\PSoC4/SetTime_ISR.c **** 
  19:Generated_Source\PSoC4/SetTime_ISR.c **** #include <cydevice_trm.h>
  20:Generated_Source\PSoC4/SetTime_ISR.c **** #include <CyLib.h>
  21:Generated_Source\PSoC4/SetTime_ISR.c **** #include <SetTime_ISR.h>
  22:Generated_Source\PSoC4/SetTime_ISR.c **** 
  23:Generated_Source\PSoC4/SetTime_ISR.c **** 
  24:Generated_Source\PSoC4/SetTime_ISR.c **** #if !defined(SetTime_ISR__REMOVED) /* Check for removal by optimization */
  25:Generated_Source\PSoC4/SetTime_ISR.c **** 
  26:Generated_Source\PSoC4/SetTime_ISR.c **** /*******************************************************************************
  27:Generated_Source\PSoC4/SetTime_ISR.c **** *  Place your includes, defines and code here 
  28:Generated_Source\PSoC4/SetTime_ISR.c **** ********************************************************************************/
  29:Generated_Source\PSoC4/SetTime_ISR.c **** /* `#START SetTime_ISR_intc` */
  30:Generated_Source\PSoC4/SetTime_ISR.c **** #include <project.h>
ARM GAS  C:\Users\Arturo\AppData\Local\Temp\ccqLgz19.s 			page 2


  31:Generated_Source\PSoC4/SetTime_ISR.c **** extern volatile int press_detect;
  32:Generated_Source\PSoC4/SetTime_ISR.c **** /* `#END` */
  33:Generated_Source\PSoC4/SetTime_ISR.c **** 
  34:Generated_Source\PSoC4/SetTime_ISR.c **** extern cyisraddress CyRamVectors[CYINT_IRQ_BASE + CY_NUM_INTERRUPTS];
  35:Generated_Source\PSoC4/SetTime_ISR.c **** 
  36:Generated_Source\PSoC4/SetTime_ISR.c **** /* Declared in startup, used to set unused interrupts to. */
  37:Generated_Source\PSoC4/SetTime_ISR.c **** CY_ISR_PROTO(IntDefaultHandler);
  38:Generated_Source\PSoC4/SetTime_ISR.c **** 
  39:Generated_Source\PSoC4/SetTime_ISR.c **** 
  40:Generated_Source\PSoC4/SetTime_ISR.c **** /*******************************************************************************
  41:Generated_Source\PSoC4/SetTime_ISR.c **** * Function Name: SetTime_ISR_Start
  42:Generated_Source\PSoC4/SetTime_ISR.c **** ********************************************************************************
  43:Generated_Source\PSoC4/SetTime_ISR.c **** *
  44:Generated_Source\PSoC4/SetTime_ISR.c **** * Summary:
  45:Generated_Source\PSoC4/SetTime_ISR.c **** *  Set up the interrupt and enable it. This function disables the interrupt, 
  46:Generated_Source\PSoC4/SetTime_ISR.c **** *  sets the default interrupt vector, sets the priority from the value in the
  47:Generated_Source\PSoC4/SetTime_ISR.c **** *  Design Wide Resources Interrupt Editor, then enables the interrupt to the 
  48:Generated_Source\PSoC4/SetTime_ISR.c **** *  interrupt controller.
  49:Generated_Source\PSoC4/SetTime_ISR.c **** *
  50:Generated_Source\PSoC4/SetTime_ISR.c **** * Parameters:  
  51:Generated_Source\PSoC4/SetTime_ISR.c **** *   None
  52:Generated_Source\PSoC4/SetTime_ISR.c **** *
  53:Generated_Source\PSoC4/SetTime_ISR.c **** * Return:
  54:Generated_Source\PSoC4/SetTime_ISR.c **** *   None
  55:Generated_Source\PSoC4/SetTime_ISR.c **** *
  56:Generated_Source\PSoC4/SetTime_ISR.c **** *******************************************************************************/
  57:Generated_Source\PSoC4/SetTime_ISR.c **** void SetTime_ISR_Start(void)
  58:Generated_Source\PSoC4/SetTime_ISR.c **** {
  28              		.loc 1 58 0
  29              		.cfi_startproc
  30              		@ args = 0, pretend = 0, frame = 0
  31              		@ frame_needed = 1, uses_anonymous_args = 0
  32 0000 80B5     		push	{r7, lr}
  33              		.cfi_def_cfa_offset 8
  34              		.cfi_offset 7, -8
  35              		.cfi_offset 14, -4
  36 0002 00AF     		add	r7, sp, #0
  37              		.cfi_def_cfa_register 7
  59:Generated_Source\PSoC4/SetTime_ISR.c ****     /* For all we know the interrupt is active. */
  60:Generated_Source\PSoC4/SetTime_ISR.c ****     SetTime_ISR_Disable();
  38              		.loc 1 60 0
  39 0004 FFF7FEFF 		bl	SetTime_ISR_Disable
  61:Generated_Source\PSoC4/SetTime_ISR.c **** 
  62:Generated_Source\PSoC4/SetTime_ISR.c ****     /* Set the ISR to point to the SetTime_ISR Interrupt. */
  63:Generated_Source\PSoC4/SetTime_ISR.c ****     SetTime_ISR_SetVector(&SetTime_ISR_Interrupt);
  40              		.loc 1 63 0
  41 0008 054B     		ldr	r3, .L2
  42 000a 1800     		movs	r0, r3
  43 000c FFF7FEFF 		bl	SetTime_ISR_SetVector
  64:Generated_Source\PSoC4/SetTime_ISR.c **** 
  65:Generated_Source\PSoC4/SetTime_ISR.c ****     /* Set the priority. */
  66:Generated_Source\PSoC4/SetTime_ISR.c ****     SetTime_ISR_SetPriority((uint8)SetTime_ISR_INTC_PRIOR_NUMBER);
  44              		.loc 1 66 0
  45 0010 0320     		movs	r0, #3
  46 0012 FFF7FEFF 		bl	SetTime_ISR_SetPriority
  67:Generated_Source\PSoC4/SetTime_ISR.c **** 
  68:Generated_Source\PSoC4/SetTime_ISR.c ****     /* Enable it. */
ARM GAS  C:\Users\Arturo\AppData\Local\Temp\ccqLgz19.s 			page 3


  69:Generated_Source\PSoC4/SetTime_ISR.c ****     SetTime_ISR_Enable();
  47              		.loc 1 69 0
  48 0016 FFF7FEFF 		bl	SetTime_ISR_Enable
  70:Generated_Source\PSoC4/SetTime_ISR.c **** }
  49              		.loc 1 70 0
  50 001a C046     		nop
  51 001c BD46     		mov	sp, r7
  52              		@ sp needed
  53 001e 80BD     		pop	{r7, pc}
  54              	.L3:
  55              		.align	2
  56              	.L2:
  57 0020 00000000 		.word	SetTime_ISR_Interrupt
  58              		.cfi_endproc
  59              	.LFE32:
  60              		.size	SetTime_ISR_Start, .-SetTime_ISR_Start
  61              		.section	.text.SetTime_ISR_StartEx,"ax",%progbits
  62              		.align	2
  63              		.global	SetTime_ISR_StartEx
  64              		.code	16
  65              		.thumb_func
  66              		.type	SetTime_ISR_StartEx, %function
  67              	SetTime_ISR_StartEx:
  68              	.LFB33:
  71:Generated_Source\PSoC4/SetTime_ISR.c **** 
  72:Generated_Source\PSoC4/SetTime_ISR.c **** 
  73:Generated_Source\PSoC4/SetTime_ISR.c **** /*******************************************************************************
  74:Generated_Source\PSoC4/SetTime_ISR.c **** * Function Name: SetTime_ISR_StartEx
  75:Generated_Source\PSoC4/SetTime_ISR.c **** ********************************************************************************
  76:Generated_Source\PSoC4/SetTime_ISR.c **** *
  77:Generated_Source\PSoC4/SetTime_ISR.c **** * Summary:
  78:Generated_Source\PSoC4/SetTime_ISR.c **** *  Sets up the interrupt and enables it. This function disables the interrupt,
  79:Generated_Source\PSoC4/SetTime_ISR.c **** *  sets the interrupt vector based on the address passed in, sets the priority 
  80:Generated_Source\PSoC4/SetTime_ISR.c **** *  from the value in the Design Wide Resources Interrupt Editor, then enables 
  81:Generated_Source\PSoC4/SetTime_ISR.c **** *  the interrupt to the interrupt controller.
  82:Generated_Source\PSoC4/SetTime_ISR.c **** *  
  83:Generated_Source\PSoC4/SetTime_ISR.c **** *  When defining ISR functions, the CY_ISR and CY_ISR_PROTO macros should be 
  84:Generated_Source\PSoC4/SetTime_ISR.c **** *  used to provide consistent definition across compilers:
  85:Generated_Source\PSoC4/SetTime_ISR.c **** *  
  86:Generated_Source\PSoC4/SetTime_ISR.c **** *  Function definition example:
  87:Generated_Source\PSoC4/SetTime_ISR.c **** *   CY_ISR(MyISR)
  88:Generated_Source\PSoC4/SetTime_ISR.c **** *   {
  89:Generated_Source\PSoC4/SetTime_ISR.c **** *   }
  90:Generated_Source\PSoC4/SetTime_ISR.c **** *   Function prototype example:
  91:Generated_Source\PSoC4/SetTime_ISR.c **** *   CY_ISR_PROTO(MyISR);
  92:Generated_Source\PSoC4/SetTime_ISR.c **** *
  93:Generated_Source\PSoC4/SetTime_ISR.c **** * Parameters:  
  94:Generated_Source\PSoC4/SetTime_ISR.c **** *   address: Address of the ISR to set in the interrupt vector table.
  95:Generated_Source\PSoC4/SetTime_ISR.c **** *
  96:Generated_Source\PSoC4/SetTime_ISR.c **** * Return:
  97:Generated_Source\PSoC4/SetTime_ISR.c **** *   None
  98:Generated_Source\PSoC4/SetTime_ISR.c **** *
  99:Generated_Source\PSoC4/SetTime_ISR.c **** *******************************************************************************/
 100:Generated_Source\PSoC4/SetTime_ISR.c **** void SetTime_ISR_StartEx(cyisraddress address)
 101:Generated_Source\PSoC4/SetTime_ISR.c **** {
  69              		.loc 1 101 0
  70              		.cfi_startproc
ARM GAS  C:\Users\Arturo\AppData\Local\Temp\ccqLgz19.s 			page 4


  71              		@ args = 0, pretend = 0, frame = 8
  72              		@ frame_needed = 1, uses_anonymous_args = 0
  73 0000 80B5     		push	{r7, lr}
  74              		.cfi_def_cfa_offset 8
  75              		.cfi_offset 7, -8
  76              		.cfi_offset 14, -4
  77 0002 82B0     		sub	sp, sp, #8
  78              		.cfi_def_cfa_offset 16
  79 0004 00AF     		add	r7, sp, #0
  80              		.cfi_def_cfa_register 7
  81 0006 7860     		str	r0, [r7, #4]
 102:Generated_Source\PSoC4/SetTime_ISR.c ****     /* For all we know the interrupt is active. */
 103:Generated_Source\PSoC4/SetTime_ISR.c ****     SetTime_ISR_Disable();
  82              		.loc 1 103 0
  83 0008 FFF7FEFF 		bl	SetTime_ISR_Disable
 104:Generated_Source\PSoC4/SetTime_ISR.c **** 
 105:Generated_Source\PSoC4/SetTime_ISR.c ****     /* Set the ISR to point to the SetTime_ISR Interrupt. */
 106:Generated_Source\PSoC4/SetTime_ISR.c ****     SetTime_ISR_SetVector(address);
  84              		.loc 1 106 0
  85 000c 7B68     		ldr	r3, [r7, #4]
  86 000e 1800     		movs	r0, r3
  87 0010 FFF7FEFF 		bl	SetTime_ISR_SetVector
 107:Generated_Source\PSoC4/SetTime_ISR.c **** 
 108:Generated_Source\PSoC4/SetTime_ISR.c ****     /* Set the priority. */
 109:Generated_Source\PSoC4/SetTime_ISR.c ****     SetTime_ISR_SetPriority((uint8)SetTime_ISR_INTC_PRIOR_NUMBER);
  88              		.loc 1 109 0
  89 0014 0320     		movs	r0, #3
  90 0016 FFF7FEFF 		bl	SetTime_ISR_SetPriority
 110:Generated_Source\PSoC4/SetTime_ISR.c **** 
 111:Generated_Source\PSoC4/SetTime_ISR.c ****     /* Enable it. */
 112:Generated_Source\PSoC4/SetTime_ISR.c ****     SetTime_ISR_Enable();
  91              		.loc 1 112 0
  92 001a FFF7FEFF 		bl	SetTime_ISR_Enable
 113:Generated_Source\PSoC4/SetTime_ISR.c **** }
  93              		.loc 1 113 0
  94 001e C046     		nop
  95 0020 BD46     		mov	sp, r7
  96 0022 02B0     		add	sp, sp, #8
  97              		@ sp needed
  98 0024 80BD     		pop	{r7, pc}
  99              		.cfi_endproc
 100              	.LFE33:
 101              		.size	SetTime_ISR_StartEx, .-SetTime_ISR_StartEx
 102 0026 C046     		.section	.text.SetTime_ISR_Stop,"ax",%progbits
 103              		.align	2
 104              		.global	SetTime_ISR_Stop
 105              		.code	16
 106              		.thumb_func
 107              		.type	SetTime_ISR_Stop, %function
 108              	SetTime_ISR_Stop:
 109              	.LFB34:
 114:Generated_Source\PSoC4/SetTime_ISR.c **** 
 115:Generated_Source\PSoC4/SetTime_ISR.c **** 
 116:Generated_Source\PSoC4/SetTime_ISR.c **** /*******************************************************************************
 117:Generated_Source\PSoC4/SetTime_ISR.c **** * Function Name: SetTime_ISR_Stop
 118:Generated_Source\PSoC4/SetTime_ISR.c **** ********************************************************************************
 119:Generated_Source\PSoC4/SetTime_ISR.c **** *
ARM GAS  C:\Users\Arturo\AppData\Local\Temp\ccqLgz19.s 			page 5


 120:Generated_Source\PSoC4/SetTime_ISR.c **** * Summary:
 121:Generated_Source\PSoC4/SetTime_ISR.c **** *   Disables and removes the interrupt.
 122:Generated_Source\PSoC4/SetTime_ISR.c **** *
 123:Generated_Source\PSoC4/SetTime_ISR.c **** * Parameters:  
 124:Generated_Source\PSoC4/SetTime_ISR.c **** *   None
 125:Generated_Source\PSoC4/SetTime_ISR.c **** *
 126:Generated_Source\PSoC4/SetTime_ISR.c **** * Return:
 127:Generated_Source\PSoC4/SetTime_ISR.c **** *   None
 128:Generated_Source\PSoC4/SetTime_ISR.c **** *
 129:Generated_Source\PSoC4/SetTime_ISR.c **** *******************************************************************************/
 130:Generated_Source\PSoC4/SetTime_ISR.c **** void SetTime_ISR_Stop(void)
 131:Generated_Source\PSoC4/SetTime_ISR.c **** {
 110              		.loc 1 131 0
 111              		.cfi_startproc
 112              		@ args = 0, pretend = 0, frame = 0
 113              		@ frame_needed = 1, uses_anonymous_args = 0
 114 0000 80B5     		push	{r7, lr}
 115              		.cfi_def_cfa_offset 8
 116              		.cfi_offset 7, -8
 117              		.cfi_offset 14, -4
 118 0002 00AF     		add	r7, sp, #0
 119              		.cfi_def_cfa_register 7
 132:Generated_Source\PSoC4/SetTime_ISR.c ****     /* Disable this interrupt. */
 133:Generated_Source\PSoC4/SetTime_ISR.c ****     SetTime_ISR_Disable();
 120              		.loc 1 133 0
 121 0004 FFF7FEFF 		bl	SetTime_ISR_Disable
 134:Generated_Source\PSoC4/SetTime_ISR.c **** 
 135:Generated_Source\PSoC4/SetTime_ISR.c ****     /* Set the ISR to point to the passive one. */
 136:Generated_Source\PSoC4/SetTime_ISR.c ****     SetTime_ISR_SetVector(&IntDefaultHandler);
 122              		.loc 1 136 0
 123 0008 034B     		ldr	r3, .L6
 124 000a 1800     		movs	r0, r3
 125 000c FFF7FEFF 		bl	SetTime_ISR_SetVector
 137:Generated_Source\PSoC4/SetTime_ISR.c **** }
 126              		.loc 1 137 0
 127 0010 C046     		nop
 128 0012 BD46     		mov	sp, r7
 129              		@ sp needed
 130 0014 80BD     		pop	{r7, pc}
 131              	.L7:
 132 0016 C046     		.align	2
 133              	.L6:
 134 0018 00000000 		.word	IntDefaultHandler
 135              		.cfi_endproc
 136              	.LFE34:
 137              		.size	SetTime_ISR_Stop, .-SetTime_ISR_Stop
 138              		.section	.text.SetTime_ISR_Interrupt,"ax",%progbits
 139              		.align	2
 140              		.global	SetTime_ISR_Interrupt
 141              		.code	16
 142              		.thumb_func
 143              		.type	SetTime_ISR_Interrupt, %function
 144              	SetTime_ISR_Interrupt:
 145              	.LFB35:
 138:Generated_Source\PSoC4/SetTime_ISR.c **** 
 139:Generated_Source\PSoC4/SetTime_ISR.c **** 
 140:Generated_Source\PSoC4/SetTime_ISR.c **** /*******************************************************************************
ARM GAS  C:\Users\Arturo\AppData\Local\Temp\ccqLgz19.s 			page 6


 141:Generated_Source\PSoC4/SetTime_ISR.c **** * Function Name: SetTime_ISR_Interrupt
 142:Generated_Source\PSoC4/SetTime_ISR.c **** ********************************************************************************
 143:Generated_Source\PSoC4/SetTime_ISR.c **** *
 144:Generated_Source\PSoC4/SetTime_ISR.c **** * Summary:
 145:Generated_Source\PSoC4/SetTime_ISR.c **** *   The default Interrupt Service Routine for SetTime_ISR.
 146:Generated_Source\PSoC4/SetTime_ISR.c **** *
 147:Generated_Source\PSoC4/SetTime_ISR.c **** *   Add custom code between the START and END comments to keep the next version
 148:Generated_Source\PSoC4/SetTime_ISR.c **** *   of this file from over-writing your code.
 149:Generated_Source\PSoC4/SetTime_ISR.c **** *
 150:Generated_Source\PSoC4/SetTime_ISR.c **** *   Note You may use either the default ISR by using this API, or you may define
 151:Generated_Source\PSoC4/SetTime_ISR.c **** *   your own separate ISR through ISR_StartEx().
 152:Generated_Source\PSoC4/SetTime_ISR.c **** *
 153:Generated_Source\PSoC4/SetTime_ISR.c **** * Parameters:  
 154:Generated_Source\PSoC4/SetTime_ISR.c **** *   None
 155:Generated_Source\PSoC4/SetTime_ISR.c **** *
 156:Generated_Source\PSoC4/SetTime_ISR.c **** * Return:
 157:Generated_Source\PSoC4/SetTime_ISR.c **** *   None
 158:Generated_Source\PSoC4/SetTime_ISR.c **** *
 159:Generated_Source\PSoC4/SetTime_ISR.c **** *******************************************************************************/
 160:Generated_Source\PSoC4/SetTime_ISR.c **** CY_ISR(SetTime_ISR_Interrupt)
 161:Generated_Source\PSoC4/SetTime_ISR.c **** {
 146              		.loc 1 161 0
 147              		.cfi_startproc
 148              		@ args = 0, pretend = 0, frame = 0
 149              		@ frame_needed = 1, uses_anonymous_args = 0
 150 0000 80B5     		push	{r7, lr}
 151              		.cfi_def_cfa_offset 8
 152              		.cfi_offset 7, -8
 153              		.cfi_offset 14, -4
 154 0002 00AF     		add	r7, sp, #0
 155              		.cfi_def_cfa_register 7
 162:Generated_Source\PSoC4/SetTime_ISR.c ****     #ifdef SetTime_ISR_INTERRUPT_INTERRUPT_CALLBACK
 163:Generated_Source\PSoC4/SetTime_ISR.c ****         SetTime_ISR_Interrupt_InterruptCallback();
 164:Generated_Source\PSoC4/SetTime_ISR.c ****     #endif /* SetTime_ISR_INTERRUPT_INTERRUPT_CALLBACK */ 
 165:Generated_Source\PSoC4/SetTime_ISR.c **** 
 166:Generated_Source\PSoC4/SetTime_ISR.c ****     /*  Place your Interrupt code here. */
 167:Generated_Source\PSoC4/SetTime_ISR.c ****     /* `#START SetTime_ISR_Interrupt` */
 168:Generated_Source\PSoC4/SetTime_ISR.c ****  //   SetTime_ISR_ClearPending();
 169:Generated_Source\PSoC4/SetTime_ISR.c **** Set_Time_ClearInterrupt();
 156              		.loc 1 169 0
 157 0004 FFF7FEFF 		bl	Set_Time_ClearInterrupt
 170:Generated_Source\PSoC4/SetTime_ISR.c ****     press_detect=0;
 158              		.loc 1 170 0
 159 0008 024B     		ldr	r3, .L9
 160 000a 0022     		movs	r2, #0
 161 000c 1A60     		str	r2, [r3]
 171:Generated_Source\PSoC4/SetTime_ISR.c ****     /* `#END` */
 172:Generated_Source\PSoC4/SetTime_ISR.c **** }
 162              		.loc 1 172 0
 163 000e C046     		nop
 164 0010 BD46     		mov	sp, r7
 165              		@ sp needed
 166 0012 80BD     		pop	{r7, pc}
 167              	.L10:
 168              		.align	2
 169              	.L9:
 170 0014 00000000 		.word	press_detect
ARM GAS  C:\Users\Arturo\AppData\Local\Temp\ccqLgz19.s 			page 7


 171              		.cfi_endproc
 172              	.LFE35:
 173              		.size	SetTime_ISR_Interrupt, .-SetTime_ISR_Interrupt
 174              		.section	.text.SetTime_ISR_SetVector,"ax",%progbits
 175              		.align	2
 176              		.global	SetTime_ISR_SetVector
 177              		.code	16
 178              		.thumb_func
 179              		.type	SetTime_ISR_SetVector, %function
 180              	SetTime_ISR_SetVector:
 181              	.LFB36:
 173:Generated_Source\PSoC4/SetTime_ISR.c **** 
 174:Generated_Source\PSoC4/SetTime_ISR.c **** 
 175:Generated_Source\PSoC4/SetTime_ISR.c **** /*******************************************************************************
 176:Generated_Source\PSoC4/SetTime_ISR.c **** * Function Name: SetTime_ISR_SetVector
 177:Generated_Source\PSoC4/SetTime_ISR.c **** ********************************************************************************
 178:Generated_Source\PSoC4/SetTime_ISR.c **** *
 179:Generated_Source\PSoC4/SetTime_ISR.c **** * Summary:
 180:Generated_Source\PSoC4/SetTime_ISR.c **** *   Change the ISR vector for the Interrupt. Note calling SetTime_ISR_Start
 181:Generated_Source\PSoC4/SetTime_ISR.c **** *   will override any effect this method would have had. To set the vector 
 182:Generated_Source\PSoC4/SetTime_ISR.c **** *   before the component has been started use SetTime_ISR_StartEx instead.
 183:Generated_Source\PSoC4/SetTime_ISR.c **** * 
 184:Generated_Source\PSoC4/SetTime_ISR.c **** *   When defining ISR functions, the CY_ISR and CY_ISR_PROTO macros should be 
 185:Generated_Source\PSoC4/SetTime_ISR.c **** *   used to provide consistent definition across compilers:
 186:Generated_Source\PSoC4/SetTime_ISR.c **** *
 187:Generated_Source\PSoC4/SetTime_ISR.c **** *   Function definition example:
 188:Generated_Source\PSoC4/SetTime_ISR.c **** *   CY_ISR(MyISR)
 189:Generated_Source\PSoC4/SetTime_ISR.c **** *   {
 190:Generated_Source\PSoC4/SetTime_ISR.c **** *   }
 191:Generated_Source\PSoC4/SetTime_ISR.c **** *
 192:Generated_Source\PSoC4/SetTime_ISR.c **** *   Function prototype example:
 193:Generated_Source\PSoC4/SetTime_ISR.c **** *     CY_ISR_PROTO(MyISR);
 194:Generated_Source\PSoC4/SetTime_ISR.c **** *
 195:Generated_Source\PSoC4/SetTime_ISR.c **** * Parameters:
 196:Generated_Source\PSoC4/SetTime_ISR.c **** *   address: Address of the ISR to set in the interrupt vector table.
 197:Generated_Source\PSoC4/SetTime_ISR.c **** *
 198:Generated_Source\PSoC4/SetTime_ISR.c **** * Return:
 199:Generated_Source\PSoC4/SetTime_ISR.c **** *   None
 200:Generated_Source\PSoC4/SetTime_ISR.c **** *
 201:Generated_Source\PSoC4/SetTime_ISR.c **** *******************************************************************************/
 202:Generated_Source\PSoC4/SetTime_ISR.c **** void SetTime_ISR_SetVector(cyisraddress address)
 203:Generated_Source\PSoC4/SetTime_ISR.c **** {
 182              		.loc 1 203 0
 183              		.cfi_startproc
 184              		@ args = 0, pretend = 0, frame = 8
 185              		@ frame_needed = 1, uses_anonymous_args = 0
 186 0000 80B5     		push	{r7, lr}
 187              		.cfi_def_cfa_offset 8
 188              		.cfi_offset 7, -8
 189              		.cfi_offset 14, -4
 190 0002 82B0     		sub	sp, sp, #8
 191              		.cfi_def_cfa_offset 16
 192 0004 00AF     		add	r7, sp, #0
 193              		.cfi_def_cfa_register 7
 194 0006 7860     		str	r0, [r7, #4]
 204:Generated_Source\PSoC4/SetTime_ISR.c ****     CyRamVectors[CYINT_IRQ_BASE + SetTime_ISR__INTC_NUMBER] = address;
 195              		.loc 1 204 0
ARM GAS  C:\Users\Arturo\AppData\Local\Temp\ccqLgz19.s 			page 8


 196 0008 034B     		ldr	r3, .L12
 197 000a 7A68     		ldr	r2, [r7, #4]
 198 000c 1A64     		str	r2, [r3, #64]
 205:Generated_Source\PSoC4/SetTime_ISR.c **** }
 199              		.loc 1 205 0
 200 000e C046     		nop
 201 0010 BD46     		mov	sp, r7
 202 0012 02B0     		add	sp, sp, #8
 203              		@ sp needed
 204 0014 80BD     		pop	{r7, pc}
 205              	.L13:
 206 0016 C046     		.align	2
 207              	.L12:
 208 0018 00000000 		.word	CyRamVectors
 209              		.cfi_endproc
 210              	.LFE36:
 211              		.size	SetTime_ISR_SetVector, .-SetTime_ISR_SetVector
 212              		.section	.text.SetTime_ISR_GetVector,"ax",%progbits
 213              		.align	2
 214              		.global	SetTime_ISR_GetVector
 215              		.code	16
 216              		.thumb_func
 217              		.type	SetTime_ISR_GetVector, %function
 218              	SetTime_ISR_GetVector:
 219              	.LFB37:
 206:Generated_Source\PSoC4/SetTime_ISR.c **** 
 207:Generated_Source\PSoC4/SetTime_ISR.c **** 
 208:Generated_Source\PSoC4/SetTime_ISR.c **** /*******************************************************************************
 209:Generated_Source\PSoC4/SetTime_ISR.c **** * Function Name: SetTime_ISR_GetVector
 210:Generated_Source\PSoC4/SetTime_ISR.c **** ********************************************************************************
 211:Generated_Source\PSoC4/SetTime_ISR.c **** *
 212:Generated_Source\PSoC4/SetTime_ISR.c **** * Summary:
 213:Generated_Source\PSoC4/SetTime_ISR.c **** *   Gets the "address" of the current ISR vector for the Interrupt.
 214:Generated_Source\PSoC4/SetTime_ISR.c **** *
 215:Generated_Source\PSoC4/SetTime_ISR.c **** * Parameters:
 216:Generated_Source\PSoC4/SetTime_ISR.c **** *   None
 217:Generated_Source\PSoC4/SetTime_ISR.c **** *
 218:Generated_Source\PSoC4/SetTime_ISR.c **** * Return:
 219:Generated_Source\PSoC4/SetTime_ISR.c **** *   Address of the ISR in the interrupt vector table.
 220:Generated_Source\PSoC4/SetTime_ISR.c **** *
 221:Generated_Source\PSoC4/SetTime_ISR.c **** *******************************************************************************/
 222:Generated_Source\PSoC4/SetTime_ISR.c **** cyisraddress SetTime_ISR_GetVector(void)
 223:Generated_Source\PSoC4/SetTime_ISR.c **** {
 220              		.loc 1 223 0
 221              		.cfi_startproc
 222              		@ args = 0, pretend = 0, frame = 0
 223              		@ frame_needed = 1, uses_anonymous_args = 0
 224 0000 80B5     		push	{r7, lr}
 225              		.cfi_def_cfa_offset 8
 226              		.cfi_offset 7, -8
 227              		.cfi_offset 14, -4
 228 0002 00AF     		add	r7, sp, #0
 229              		.cfi_def_cfa_register 7
 224:Generated_Source\PSoC4/SetTime_ISR.c ****     return CyRamVectors[CYINT_IRQ_BASE + SetTime_ISR__INTC_NUMBER];
 230              		.loc 1 224 0
 231 0004 024B     		ldr	r3, .L16
 232 0006 1B6C     		ldr	r3, [r3, #64]
ARM GAS  C:\Users\Arturo\AppData\Local\Temp\ccqLgz19.s 			page 9


 225:Generated_Source\PSoC4/SetTime_ISR.c **** }
 233              		.loc 1 225 0
 234 0008 1800     		movs	r0, r3
 235 000a BD46     		mov	sp, r7
 236              		@ sp needed
 237 000c 80BD     		pop	{r7, pc}
 238              	.L17:
 239 000e C046     		.align	2
 240              	.L16:
 241 0010 00000000 		.word	CyRamVectors
 242              		.cfi_endproc
 243              	.LFE37:
 244              		.size	SetTime_ISR_GetVector, .-SetTime_ISR_GetVector
 245              		.section	.text.SetTime_ISR_SetPriority,"ax",%progbits
 246              		.align	2
 247              		.global	SetTime_ISR_SetPriority
 248              		.code	16
 249              		.thumb_func
 250              		.type	SetTime_ISR_SetPriority, %function
 251              	SetTime_ISR_SetPriority:
 252              	.LFB38:
 226:Generated_Source\PSoC4/SetTime_ISR.c **** 
 227:Generated_Source\PSoC4/SetTime_ISR.c **** 
 228:Generated_Source\PSoC4/SetTime_ISR.c **** /*******************************************************************************
 229:Generated_Source\PSoC4/SetTime_ISR.c **** * Function Name: SetTime_ISR_SetPriority
 230:Generated_Source\PSoC4/SetTime_ISR.c **** ********************************************************************************
 231:Generated_Source\PSoC4/SetTime_ISR.c **** *
 232:Generated_Source\PSoC4/SetTime_ISR.c **** * Summary:
 233:Generated_Source\PSoC4/SetTime_ISR.c **** *   Sets the Priority of the Interrupt. 
 234:Generated_Source\PSoC4/SetTime_ISR.c **** *
 235:Generated_Source\PSoC4/SetTime_ISR.c **** *   Note calling SetTime_ISR_Start or SetTime_ISR_StartEx will 
 236:Generated_Source\PSoC4/SetTime_ISR.c **** *   override any effect this API would have had. This API should only be called
 237:Generated_Source\PSoC4/SetTime_ISR.c **** *   after SetTime_ISR_Start or SetTime_ISR_StartEx has been called. 
 238:Generated_Source\PSoC4/SetTime_ISR.c **** *   To set the initial priority for the component, use the Design-Wide Resources
 239:Generated_Source\PSoC4/SetTime_ISR.c **** *   Interrupt Editor.
 240:Generated_Source\PSoC4/SetTime_ISR.c **** *
 241:Generated_Source\PSoC4/SetTime_ISR.c **** *   Note This API has no effect on Non-maskable interrupt NMI).
 242:Generated_Source\PSoC4/SetTime_ISR.c **** *
 243:Generated_Source\PSoC4/SetTime_ISR.c **** * Parameters:
 244:Generated_Source\PSoC4/SetTime_ISR.c **** *   priority: Priority of the interrupt, 0 being the highest priority
 245:Generated_Source\PSoC4/SetTime_ISR.c **** *             PSoC 3 and PSoC 5LP: Priority is from 0 to 7.
 246:Generated_Source\PSoC4/SetTime_ISR.c **** *             PSoC 4: Priority is from 0 to 3.
 247:Generated_Source\PSoC4/SetTime_ISR.c **** *
 248:Generated_Source\PSoC4/SetTime_ISR.c **** * Return:
 249:Generated_Source\PSoC4/SetTime_ISR.c **** *   None
 250:Generated_Source\PSoC4/SetTime_ISR.c **** *
 251:Generated_Source\PSoC4/SetTime_ISR.c **** *******************************************************************************/
 252:Generated_Source\PSoC4/SetTime_ISR.c **** void SetTime_ISR_SetPriority(uint8 priority)
 253:Generated_Source\PSoC4/SetTime_ISR.c **** {
 253              		.loc 1 253 0
 254              		.cfi_startproc
 255              		@ args = 0, pretend = 0, frame = 16
 256              		@ frame_needed = 1, uses_anonymous_args = 0
 257 0000 90B5     		push	{r4, r7, lr}
 258              		.cfi_def_cfa_offset 12
 259              		.cfi_offset 4, -12
 260              		.cfi_offset 7, -8
ARM GAS  C:\Users\Arturo\AppData\Local\Temp\ccqLgz19.s 			page 10


 261              		.cfi_offset 14, -4
 262 0002 85B0     		sub	sp, sp, #20
 263              		.cfi_def_cfa_offset 32
 264 0004 00AF     		add	r7, sp, #0
 265              		.cfi_def_cfa_register 7
 266 0006 0200     		movs	r2, r0
 267 0008 FB1D     		adds	r3, r7, #7
 268 000a 1A70     		strb	r2, [r3]
 254:Generated_Source\PSoC4/SetTime_ISR.c **** 	uint8 interruptState;
 255:Generated_Source\PSoC4/SetTime_ISR.c ****     uint32 priorityOffset = ((SetTime_ISR__INTC_NUMBER % 4u) * 8u) + 6u;
 269              		.loc 1 255 0
 270 000c 0623     		movs	r3, #6
 271 000e FB60     		str	r3, [r7, #12]
 256:Generated_Source\PSoC4/SetTime_ISR.c ****     
 257:Generated_Source\PSoC4/SetTime_ISR.c **** 	interruptState = CyEnterCriticalSection();
 272              		.loc 1 257 0
 273 0010 0B23     		movs	r3, #11
 274 0012 FC18     		adds	r4, r7, r3
 275 0014 FFF7FEFF 		bl	CyEnterCriticalSection
 276 0018 0300     		movs	r3, r0
 277 001a 2370     		strb	r3, [r4]
 258:Generated_Source\PSoC4/SetTime_ISR.c ****     *SetTime_ISR_INTC_PRIOR = (*SetTime_ISR_INTC_PRIOR & (uint32)(~(uint32)SetTime_ISR__INTC_PRIOR_
 278              		.loc 1 258 0
 279 001c 0B4B     		ldr	r3, .L19
 280 001e 0B4A     		ldr	r2, .L19
 281 0020 1268     		ldr	r2, [r2]
 282 0022 C021     		movs	r1, #192
 283 0024 8A43     		bics	r2, r1
 284 0026 1100     		movs	r1, r2
 259:Generated_Source\PSoC4/SetTime_ISR.c ****                                     ((uint32)priority << priorityOffset);
 285              		.loc 1 259 0
 286 0028 FA1D     		adds	r2, r7, #7
 287 002a 1078     		ldrb	r0, [r2]
 288 002c FA68     		ldr	r2, [r7, #12]
 289 002e 9040     		lsls	r0, r0, r2
 290 0030 0200     		movs	r2, r0
 258:Generated_Source\PSoC4/SetTime_ISR.c ****     *SetTime_ISR_INTC_PRIOR = (*SetTime_ISR_INTC_PRIOR & (uint32)(~(uint32)SetTime_ISR__INTC_PRIOR_
 291              		.loc 1 258 0
 292 0032 0A43     		orrs	r2, r1
 293 0034 1A60     		str	r2, [r3]
 260:Generated_Source\PSoC4/SetTime_ISR.c **** 	CyExitCriticalSection(interruptState);
 294              		.loc 1 260 0
 295 0036 0B23     		movs	r3, #11
 296 0038 FB18     		adds	r3, r7, r3
 297 003a 1B78     		ldrb	r3, [r3]
 298 003c 1800     		movs	r0, r3
 299 003e FFF7FEFF 		bl	CyExitCriticalSection
 261:Generated_Source\PSoC4/SetTime_ISR.c **** }
 300              		.loc 1 261 0
 301 0042 C046     		nop
 302 0044 BD46     		mov	sp, r7
 303 0046 05B0     		add	sp, sp, #20
 304              		@ sp needed
 305 0048 90BD     		pop	{r4, r7, pc}
 306              	.L20:
 307 004a C046     		.align	2
 308              	.L19:
ARM GAS  C:\Users\Arturo\AppData\Local\Temp\ccqLgz19.s 			page 11


 309 004c 00E400E0 		.word	-536812544
 310              		.cfi_endproc
 311              	.LFE38:
 312              		.size	SetTime_ISR_SetPriority, .-SetTime_ISR_SetPriority
 313              		.section	.text.SetTime_ISR_GetPriority,"ax",%progbits
 314              		.align	2
 315              		.global	SetTime_ISR_GetPriority
 316              		.code	16
 317              		.thumb_func
 318              		.type	SetTime_ISR_GetPriority, %function
 319              	SetTime_ISR_GetPriority:
 320              	.LFB39:
 262:Generated_Source\PSoC4/SetTime_ISR.c **** 
 263:Generated_Source\PSoC4/SetTime_ISR.c **** 
 264:Generated_Source\PSoC4/SetTime_ISR.c **** /*******************************************************************************
 265:Generated_Source\PSoC4/SetTime_ISR.c **** * Function Name: SetTime_ISR_GetPriority
 266:Generated_Source\PSoC4/SetTime_ISR.c **** ********************************************************************************
 267:Generated_Source\PSoC4/SetTime_ISR.c **** *
 268:Generated_Source\PSoC4/SetTime_ISR.c **** * Summary:
 269:Generated_Source\PSoC4/SetTime_ISR.c **** *   Gets the Priority of the Interrupt.
 270:Generated_Source\PSoC4/SetTime_ISR.c **** *
 271:Generated_Source\PSoC4/SetTime_ISR.c **** * Parameters:
 272:Generated_Source\PSoC4/SetTime_ISR.c **** *   None
 273:Generated_Source\PSoC4/SetTime_ISR.c **** *
 274:Generated_Source\PSoC4/SetTime_ISR.c **** * Return:
 275:Generated_Source\PSoC4/SetTime_ISR.c **** *   Priority of the interrupt, 0 being the highest priority
 276:Generated_Source\PSoC4/SetTime_ISR.c **** *    PSoC 3 and PSoC 5LP: Priority is from 0 to 7.
 277:Generated_Source\PSoC4/SetTime_ISR.c **** *    PSoC 4: Priority is from 0 to 3.
 278:Generated_Source\PSoC4/SetTime_ISR.c **** *
 279:Generated_Source\PSoC4/SetTime_ISR.c **** *******************************************************************************/
 280:Generated_Source\PSoC4/SetTime_ISR.c **** uint8 SetTime_ISR_GetPriority(void)
 281:Generated_Source\PSoC4/SetTime_ISR.c **** {
 321              		.loc 1 281 0
 322              		.cfi_startproc
 323              		@ args = 0, pretend = 0, frame = 8
 324              		@ frame_needed = 1, uses_anonymous_args = 0
 325 0000 80B5     		push	{r7, lr}
 326              		.cfi_def_cfa_offset 8
 327              		.cfi_offset 7, -8
 328              		.cfi_offset 14, -4
 329 0002 82B0     		sub	sp, sp, #8
 330              		.cfi_def_cfa_offset 16
 331 0004 00AF     		add	r7, sp, #0
 332              		.cfi_def_cfa_register 7
 282:Generated_Source\PSoC4/SetTime_ISR.c ****     uint32 priority;
 283:Generated_Source\PSoC4/SetTime_ISR.c **** 	uint32 priorityOffset = ((SetTime_ISR__INTC_NUMBER % 4u) * 8u) + 6u;
 333              		.loc 1 283 0
 334 0006 0623     		movs	r3, #6
 335 0008 7B60     		str	r3, [r7, #4]
 284:Generated_Source\PSoC4/SetTime_ISR.c **** 
 285:Generated_Source\PSoC4/SetTime_ISR.c ****     priority = (*SetTime_ISR_INTC_PRIOR & SetTime_ISR__INTC_PRIOR_MASK) >> priorityOffset;
 336              		.loc 1 285 0
 337 000a 074B     		ldr	r3, .L23
 338 000c 1B68     		ldr	r3, [r3]
 339 000e C022     		movs	r2, #192
 340 0010 1A40     		ands	r2, r3
 341 0012 7B68     		ldr	r3, [r7, #4]
ARM GAS  C:\Users\Arturo\AppData\Local\Temp\ccqLgz19.s 			page 12


 342 0014 DA40     		lsrs	r2, r2, r3
 343 0016 1300     		movs	r3, r2
 344 0018 3B60     		str	r3, [r7]
 286:Generated_Source\PSoC4/SetTime_ISR.c **** 
 287:Generated_Source\PSoC4/SetTime_ISR.c ****     return (uint8)priority;
 345              		.loc 1 287 0
 346 001a 3B68     		ldr	r3, [r7]
 347 001c DBB2     		uxtb	r3, r3
 288:Generated_Source\PSoC4/SetTime_ISR.c **** }
 348              		.loc 1 288 0
 349 001e 1800     		movs	r0, r3
 350 0020 BD46     		mov	sp, r7
 351 0022 02B0     		add	sp, sp, #8
 352              		@ sp needed
 353 0024 80BD     		pop	{r7, pc}
 354              	.L24:
 355 0026 C046     		.align	2
 356              	.L23:
 357 0028 00E400E0 		.word	-536812544
 358              		.cfi_endproc
 359              	.LFE39:
 360              		.size	SetTime_ISR_GetPriority, .-SetTime_ISR_GetPriority
 361              		.section	.text.SetTime_ISR_Enable,"ax",%progbits
 362              		.align	2
 363              		.global	SetTime_ISR_Enable
 364              		.code	16
 365              		.thumb_func
 366              		.type	SetTime_ISR_Enable, %function
 367              	SetTime_ISR_Enable:
 368              	.LFB40:
 289:Generated_Source\PSoC4/SetTime_ISR.c **** 
 290:Generated_Source\PSoC4/SetTime_ISR.c **** 
 291:Generated_Source\PSoC4/SetTime_ISR.c **** /*******************************************************************************
 292:Generated_Source\PSoC4/SetTime_ISR.c **** * Function Name: SetTime_ISR_Enable
 293:Generated_Source\PSoC4/SetTime_ISR.c **** ********************************************************************************
 294:Generated_Source\PSoC4/SetTime_ISR.c **** *
 295:Generated_Source\PSoC4/SetTime_ISR.c **** * Summary:
 296:Generated_Source\PSoC4/SetTime_ISR.c **** *   Enables the interrupt to the interrupt controller. Do not call this function
 297:Generated_Source\PSoC4/SetTime_ISR.c **** *   unless ISR_Start() has been called or the functionality of the ISR_Start() 
 298:Generated_Source\PSoC4/SetTime_ISR.c **** *   function, which sets the vector and the priority, has been called.
 299:Generated_Source\PSoC4/SetTime_ISR.c **** *
 300:Generated_Source\PSoC4/SetTime_ISR.c **** * Parameters:
 301:Generated_Source\PSoC4/SetTime_ISR.c **** *   None
 302:Generated_Source\PSoC4/SetTime_ISR.c **** *
 303:Generated_Source\PSoC4/SetTime_ISR.c **** * Return:
 304:Generated_Source\PSoC4/SetTime_ISR.c **** *   None
 305:Generated_Source\PSoC4/SetTime_ISR.c **** *
 306:Generated_Source\PSoC4/SetTime_ISR.c **** *******************************************************************************/
 307:Generated_Source\PSoC4/SetTime_ISR.c **** void SetTime_ISR_Enable(void)
 308:Generated_Source\PSoC4/SetTime_ISR.c **** {
 369              		.loc 1 308 0
 370              		.cfi_startproc
 371              		@ args = 0, pretend = 0, frame = 0
 372              		@ frame_needed = 1, uses_anonymous_args = 0
 373 0000 80B5     		push	{r7, lr}
 374              		.cfi_def_cfa_offset 8
 375              		.cfi_offset 7, -8
ARM GAS  C:\Users\Arturo\AppData\Local\Temp\ccqLgz19.s 			page 13


 376              		.cfi_offset 14, -4
 377 0002 00AF     		add	r7, sp, #0
 378              		.cfi_def_cfa_register 7
 309:Generated_Source\PSoC4/SetTime_ISR.c ****     /* Enable the general interrupt. */
 310:Generated_Source\PSoC4/SetTime_ISR.c ****     *SetTime_ISR_INTC_SET_EN = SetTime_ISR__INTC_MASK;
 379              		.loc 1 310 0
 380 0004 024B     		ldr	r3, .L26
 381 0006 0122     		movs	r2, #1
 382 0008 1A60     		str	r2, [r3]
 311:Generated_Source\PSoC4/SetTime_ISR.c **** }
 383              		.loc 1 311 0
 384 000a C046     		nop
 385 000c BD46     		mov	sp, r7
 386              		@ sp needed
 387 000e 80BD     		pop	{r7, pc}
 388              	.L27:
 389              		.align	2
 390              	.L26:
 391 0010 00E100E0 		.word	-536813312
 392              		.cfi_endproc
 393              	.LFE40:
 394              		.size	SetTime_ISR_Enable, .-SetTime_ISR_Enable
 395              		.section	.text.SetTime_ISR_GetState,"ax",%progbits
 396              		.align	2
 397              		.global	SetTime_ISR_GetState
 398              		.code	16
 399              		.thumb_func
 400              		.type	SetTime_ISR_GetState, %function
 401              	SetTime_ISR_GetState:
 402              	.LFB41:
 312:Generated_Source\PSoC4/SetTime_ISR.c **** 
 313:Generated_Source\PSoC4/SetTime_ISR.c **** 
 314:Generated_Source\PSoC4/SetTime_ISR.c **** /*******************************************************************************
 315:Generated_Source\PSoC4/SetTime_ISR.c **** * Function Name: SetTime_ISR_GetState
 316:Generated_Source\PSoC4/SetTime_ISR.c **** ********************************************************************************
 317:Generated_Source\PSoC4/SetTime_ISR.c **** *
 318:Generated_Source\PSoC4/SetTime_ISR.c **** * Summary:
 319:Generated_Source\PSoC4/SetTime_ISR.c **** *   Gets the state (enabled, disabled) of the Interrupt.
 320:Generated_Source\PSoC4/SetTime_ISR.c **** *
 321:Generated_Source\PSoC4/SetTime_ISR.c **** * Parameters:
 322:Generated_Source\PSoC4/SetTime_ISR.c **** *   None
 323:Generated_Source\PSoC4/SetTime_ISR.c **** *
 324:Generated_Source\PSoC4/SetTime_ISR.c **** * Return:
 325:Generated_Source\PSoC4/SetTime_ISR.c **** *   1 if enabled, 0 if disabled.
 326:Generated_Source\PSoC4/SetTime_ISR.c **** *
 327:Generated_Source\PSoC4/SetTime_ISR.c **** *******************************************************************************/
 328:Generated_Source\PSoC4/SetTime_ISR.c **** uint8 SetTime_ISR_GetState(void)
 329:Generated_Source\PSoC4/SetTime_ISR.c **** {
 403              		.loc 1 329 0
 404              		.cfi_startproc
 405              		@ args = 0, pretend = 0, frame = 0
 406              		@ frame_needed = 1, uses_anonymous_args = 0
 407 0000 80B5     		push	{r7, lr}
 408              		.cfi_def_cfa_offset 8
 409              		.cfi_offset 7, -8
 410              		.cfi_offset 14, -4
 411 0002 00AF     		add	r7, sp, #0
ARM GAS  C:\Users\Arturo\AppData\Local\Temp\ccqLgz19.s 			page 14


 412              		.cfi_def_cfa_register 7
 330:Generated_Source\PSoC4/SetTime_ISR.c ****     /* Get the state of the general interrupt. */
 331:Generated_Source\PSoC4/SetTime_ISR.c ****     return ((*SetTime_ISR_INTC_SET_EN & (uint32)SetTime_ISR__INTC_MASK) != 0u) ? 1u:0u;
 413              		.loc 1 331 0
 414 0004 044B     		ldr	r3, .L30
 415 0006 1B68     		ldr	r3, [r3]
 416 0008 DBB2     		uxtb	r3, r3
 417 000a 0122     		movs	r2, #1
 418 000c 1340     		ands	r3, r2
 419 000e DBB2     		uxtb	r3, r3
 332:Generated_Source\PSoC4/SetTime_ISR.c **** }
 420              		.loc 1 332 0
 421 0010 1800     		movs	r0, r3
 422 0012 BD46     		mov	sp, r7
 423              		@ sp needed
 424 0014 80BD     		pop	{r7, pc}
 425              	.L31:
 426 0016 C046     		.align	2
 427              	.L30:
 428 0018 00E100E0 		.word	-536813312
 429              		.cfi_endproc
 430              	.LFE41:
 431              		.size	SetTime_ISR_GetState, .-SetTime_ISR_GetState
 432              		.section	.text.SetTime_ISR_Disable,"ax",%progbits
 433              		.align	2
 434              		.global	SetTime_ISR_Disable
 435              		.code	16
 436              		.thumb_func
 437              		.type	SetTime_ISR_Disable, %function
 438              	SetTime_ISR_Disable:
 439              	.LFB42:
 333:Generated_Source\PSoC4/SetTime_ISR.c **** 
 334:Generated_Source\PSoC4/SetTime_ISR.c **** 
 335:Generated_Source\PSoC4/SetTime_ISR.c **** /*******************************************************************************
 336:Generated_Source\PSoC4/SetTime_ISR.c **** * Function Name: SetTime_ISR_Disable
 337:Generated_Source\PSoC4/SetTime_ISR.c **** ********************************************************************************
 338:Generated_Source\PSoC4/SetTime_ISR.c **** *
 339:Generated_Source\PSoC4/SetTime_ISR.c **** * Summary:
 340:Generated_Source\PSoC4/SetTime_ISR.c **** *   Disables the Interrupt in the interrupt controller.
 341:Generated_Source\PSoC4/SetTime_ISR.c **** *
 342:Generated_Source\PSoC4/SetTime_ISR.c **** * Parameters:
 343:Generated_Source\PSoC4/SetTime_ISR.c **** *   None
 344:Generated_Source\PSoC4/SetTime_ISR.c **** *
 345:Generated_Source\PSoC4/SetTime_ISR.c **** * Return:
 346:Generated_Source\PSoC4/SetTime_ISR.c **** *   None
 347:Generated_Source\PSoC4/SetTime_ISR.c **** *
 348:Generated_Source\PSoC4/SetTime_ISR.c **** *******************************************************************************/
 349:Generated_Source\PSoC4/SetTime_ISR.c **** void SetTime_ISR_Disable(void)
 350:Generated_Source\PSoC4/SetTime_ISR.c **** {
 440              		.loc 1 350 0
 441              		.cfi_startproc
 442              		@ args = 0, pretend = 0, frame = 0
 443              		@ frame_needed = 1, uses_anonymous_args = 0
 444 0000 80B5     		push	{r7, lr}
 445              		.cfi_def_cfa_offset 8
 446              		.cfi_offset 7, -8
 447              		.cfi_offset 14, -4
ARM GAS  C:\Users\Arturo\AppData\Local\Temp\ccqLgz19.s 			page 15


 448 0002 00AF     		add	r7, sp, #0
 449              		.cfi_def_cfa_register 7
 351:Generated_Source\PSoC4/SetTime_ISR.c ****     /* Disable the general interrupt. */
 352:Generated_Source\PSoC4/SetTime_ISR.c ****     *SetTime_ISR_INTC_CLR_EN = SetTime_ISR__INTC_MASK;
 450              		.loc 1 352 0
 451 0004 024B     		ldr	r3, .L33
 452 0006 0122     		movs	r2, #1
 453 0008 1A60     		str	r2, [r3]
 353:Generated_Source\PSoC4/SetTime_ISR.c **** }
 454              		.loc 1 353 0
 455 000a C046     		nop
 456 000c BD46     		mov	sp, r7
 457              		@ sp needed
 458 000e 80BD     		pop	{r7, pc}
 459              	.L34:
 460              		.align	2
 461              	.L33:
 462 0010 80E100E0 		.word	-536813184
 463              		.cfi_endproc
 464              	.LFE42:
 465              		.size	SetTime_ISR_Disable, .-SetTime_ISR_Disable
 466              		.section	.text.SetTime_ISR_SetPending,"ax",%progbits
 467              		.align	2
 468              		.global	SetTime_ISR_SetPending
 469              		.code	16
 470              		.thumb_func
 471              		.type	SetTime_ISR_SetPending, %function
 472              	SetTime_ISR_SetPending:
 473              	.LFB43:
 354:Generated_Source\PSoC4/SetTime_ISR.c **** 
 355:Generated_Source\PSoC4/SetTime_ISR.c **** 
 356:Generated_Source\PSoC4/SetTime_ISR.c **** /*******************************************************************************
 357:Generated_Source\PSoC4/SetTime_ISR.c **** * Function Name: SetTime_ISR_SetPending
 358:Generated_Source\PSoC4/SetTime_ISR.c **** ********************************************************************************
 359:Generated_Source\PSoC4/SetTime_ISR.c **** *
 360:Generated_Source\PSoC4/SetTime_ISR.c **** * Summary:
 361:Generated_Source\PSoC4/SetTime_ISR.c **** *   Causes the Interrupt to enter the pending state, a software method of
 362:Generated_Source\PSoC4/SetTime_ISR.c **** *   generating the interrupt.
 363:Generated_Source\PSoC4/SetTime_ISR.c **** *
 364:Generated_Source\PSoC4/SetTime_ISR.c **** * Parameters:
 365:Generated_Source\PSoC4/SetTime_ISR.c **** *   None
 366:Generated_Source\PSoC4/SetTime_ISR.c **** *
 367:Generated_Source\PSoC4/SetTime_ISR.c **** * Return:
 368:Generated_Source\PSoC4/SetTime_ISR.c **** *   None
 369:Generated_Source\PSoC4/SetTime_ISR.c **** *
 370:Generated_Source\PSoC4/SetTime_ISR.c **** * Side Effects:
 371:Generated_Source\PSoC4/SetTime_ISR.c **** *   If interrupts are enabled and the interrupt is set up properly, the ISR is
 372:Generated_Source\PSoC4/SetTime_ISR.c **** *   entered (depending on the priority of this interrupt and other pending 
 373:Generated_Source\PSoC4/SetTime_ISR.c **** *   interrupts).
 374:Generated_Source\PSoC4/SetTime_ISR.c **** *
 375:Generated_Source\PSoC4/SetTime_ISR.c **** *******************************************************************************/
 376:Generated_Source\PSoC4/SetTime_ISR.c **** void SetTime_ISR_SetPending(void)
 377:Generated_Source\PSoC4/SetTime_ISR.c **** {
 474              		.loc 1 377 0
 475              		.cfi_startproc
 476              		@ args = 0, pretend = 0, frame = 0
 477              		@ frame_needed = 1, uses_anonymous_args = 0
ARM GAS  C:\Users\Arturo\AppData\Local\Temp\ccqLgz19.s 			page 16


 478 0000 80B5     		push	{r7, lr}
 479              		.cfi_def_cfa_offset 8
 480              		.cfi_offset 7, -8
 481              		.cfi_offset 14, -4
 482 0002 00AF     		add	r7, sp, #0
 483              		.cfi_def_cfa_register 7
 378:Generated_Source\PSoC4/SetTime_ISR.c ****     *SetTime_ISR_INTC_SET_PD = SetTime_ISR__INTC_MASK;
 484              		.loc 1 378 0
 485 0004 024B     		ldr	r3, .L36
 486 0006 0122     		movs	r2, #1
 487 0008 1A60     		str	r2, [r3]
 379:Generated_Source\PSoC4/SetTime_ISR.c **** }
 488              		.loc 1 379 0
 489 000a C046     		nop
 490 000c BD46     		mov	sp, r7
 491              		@ sp needed
 492 000e 80BD     		pop	{r7, pc}
 493              	.L37:
 494              		.align	2
 495              	.L36:
 496 0010 00E200E0 		.word	-536813056
 497              		.cfi_endproc
 498              	.LFE43:
 499              		.size	SetTime_ISR_SetPending, .-SetTime_ISR_SetPending
 500              		.section	.text.SetTime_ISR_ClearPending,"ax",%progbits
 501              		.align	2
 502              		.global	SetTime_ISR_ClearPending
 503              		.code	16
 504              		.thumb_func
 505              		.type	SetTime_ISR_ClearPending, %function
 506              	SetTime_ISR_ClearPending:
 507              	.LFB44:
 380:Generated_Source\PSoC4/SetTime_ISR.c **** 
 381:Generated_Source\PSoC4/SetTime_ISR.c **** 
 382:Generated_Source\PSoC4/SetTime_ISR.c **** /*******************************************************************************
 383:Generated_Source\PSoC4/SetTime_ISR.c **** * Function Name: SetTime_ISR_ClearPending
 384:Generated_Source\PSoC4/SetTime_ISR.c **** ********************************************************************************
 385:Generated_Source\PSoC4/SetTime_ISR.c **** *
 386:Generated_Source\PSoC4/SetTime_ISR.c **** * Summary:
 387:Generated_Source\PSoC4/SetTime_ISR.c **** *   Clears a pending interrupt in the interrupt controller.
 388:Generated_Source\PSoC4/SetTime_ISR.c **** *
 389:Generated_Source\PSoC4/SetTime_ISR.c **** *   Note Some interrupt sources are clear-on-read and require the block 
 390:Generated_Source\PSoC4/SetTime_ISR.c **** *   interrupt/status register to be read/cleared with the appropriate block API 
 391:Generated_Source\PSoC4/SetTime_ISR.c **** *   (GPIO, UART, and so on). Otherwise the ISR will continue to remain in 
 392:Generated_Source\PSoC4/SetTime_ISR.c **** *   pending state even though the interrupt itself is cleared using this API.
 393:Generated_Source\PSoC4/SetTime_ISR.c **** *
 394:Generated_Source\PSoC4/SetTime_ISR.c **** * Parameters:
 395:Generated_Source\PSoC4/SetTime_ISR.c **** *   None
 396:Generated_Source\PSoC4/SetTime_ISR.c **** *
 397:Generated_Source\PSoC4/SetTime_ISR.c **** * Return:
 398:Generated_Source\PSoC4/SetTime_ISR.c **** *   None
 399:Generated_Source\PSoC4/SetTime_ISR.c **** *
 400:Generated_Source\PSoC4/SetTime_ISR.c **** *******************************************************************************/
 401:Generated_Source\PSoC4/SetTime_ISR.c **** void SetTime_ISR_ClearPending(void)
 402:Generated_Source\PSoC4/SetTime_ISR.c **** {
 508              		.loc 1 402 0
 509              		.cfi_startproc
ARM GAS  C:\Users\Arturo\AppData\Local\Temp\ccqLgz19.s 			page 17


 510              		@ args = 0, pretend = 0, frame = 0
 511              		@ frame_needed = 1, uses_anonymous_args = 0
 512 0000 80B5     		push	{r7, lr}
 513              		.cfi_def_cfa_offset 8
 514              		.cfi_offset 7, -8
 515              		.cfi_offset 14, -4
 516 0002 00AF     		add	r7, sp, #0
 517              		.cfi_def_cfa_register 7
 403:Generated_Source\PSoC4/SetTime_ISR.c ****     *SetTime_ISR_INTC_CLR_PD = SetTime_ISR__INTC_MASK;
 518              		.loc 1 403 0
 519 0004 024B     		ldr	r3, .L39
 520 0006 0122     		movs	r2, #1
 521 0008 1A60     		str	r2, [r3]
 404:Generated_Source\PSoC4/SetTime_ISR.c **** }
 522              		.loc 1 404 0
 523 000a C046     		nop
 524 000c BD46     		mov	sp, r7
 525              		@ sp needed
 526 000e 80BD     		pop	{r7, pc}
 527              	.L40:
 528              		.align	2
 529              	.L39:
 530 0010 80E200E0 		.word	-536812928
 531              		.cfi_endproc
 532              	.LFE44:
 533              		.size	SetTime_ISR_ClearPending, .-SetTime_ISR_ClearPending
 534              		.text
 535              	.Letext0:
 536              		.file 2 "Generated_Source\\PSoC4/cytypes.h"