ARM GAS  C:\Users\Arturo\AppData\Local\Temp\ccAsP1on.s 			page 1


   1              		.syntax unified
   2              		.cpu cortex-m0
   3              		.fpu softvfp
   4              		.eabi_attribute 20, 1
   5              		.eabi_attribute 21, 1
   6              		.eabi_attribute 23, 3
   7              		.eabi_attribute 24, 1
   8              		.eabi_attribute 25, 1
   9              		.eabi_attribute 26, 1
  10              		.eabi_attribute 30, 6
  11              		.eabi_attribute 34, 0
  12              		.eabi_attribute 18, 4
  13              		.thumb
  14              		.syntax unified
  15              		.file	"ISR.c"
  16              		.text
  17              	.Ltext0:
  18              		.cfi_sections	.debug_frame
  19              		.section	.text.ISR_Start,"ax",%progbits
  20              		.align	2
  21              		.global	ISR_Start
  22              		.code	16
  23              		.thumb_func
  24              		.type	ISR_Start, %function
  25              	ISR_Start:
  26              	.LFB32:
  27              		.file 1 "Generated_Source\\PSoC4\\ISR.c"
   1:Generated_Source\PSoC4/ISR.c **** /*******************************************************************************
   2:Generated_Source\PSoC4/ISR.c **** * File Name: ISR.c  
   3:Generated_Source\PSoC4/ISR.c **** * Version 1.71
   4:Generated_Source\PSoC4/ISR.c **** *
   5:Generated_Source\PSoC4/ISR.c **** *  Description:
   6:Generated_Source\PSoC4/ISR.c **** *   API for controlling the state of an interrupt.
   7:Generated_Source\PSoC4/ISR.c **** *
   8:Generated_Source\PSoC4/ISR.c **** *
   9:Generated_Source\PSoC4/ISR.c **** *  Note:
  10:Generated_Source\PSoC4/ISR.c **** *
  11:Generated_Source\PSoC4/ISR.c **** ********************************************************************************
  12:Generated_Source\PSoC4/ISR.c **** * Copyright 2008-2015, Cypress Semiconductor Corporation.  All rights reserved.
  13:Generated_Source\PSoC4/ISR.c **** * You may use this file only in accordance with the license, terms, conditions, 
  14:Generated_Source\PSoC4/ISR.c **** * disclaimers, and limitations in the end user license agreement accompanying 
  15:Generated_Source\PSoC4/ISR.c **** * the software package with which this file was provided.
  16:Generated_Source\PSoC4/ISR.c **** *******************************************************************************/
  17:Generated_Source\PSoC4/ISR.c **** 
  18:Generated_Source\PSoC4/ISR.c **** 
  19:Generated_Source\PSoC4/ISR.c **** #include <cydevice_trm.h>
  20:Generated_Source\PSoC4/ISR.c **** #include <CyLib.h>
  21:Generated_Source\PSoC4/ISR.c **** #include <ISR.h>
  22:Generated_Source\PSoC4/ISR.c **** 
  23:Generated_Source\PSoC4/ISR.c **** 
  24:Generated_Source\PSoC4/ISR.c **** #if !defined(ISR__REMOVED) /* Check for removal by optimization */
  25:Generated_Source\PSoC4/ISR.c **** 
  26:Generated_Source\PSoC4/ISR.c **** /*******************************************************************************
  27:Generated_Source\PSoC4/ISR.c **** *  Place your includes, defines and code here 
  28:Generated_Source\PSoC4/ISR.c **** ********************************************************************************/
  29:Generated_Source\PSoC4/ISR.c **** /* `#START ISR_intc` */
  30:Generated_Source\PSoC4/ISR.c **** #include <project.h>
ARM GAS  C:\Users\Arturo\AppData\Local\Temp\ccAsP1on.s 			page 2


  31:Generated_Source\PSoC4/ISR.c **** extern volatile int flag;
  32:Generated_Source\PSoC4/ISR.c **** 
  33:Generated_Source\PSoC4/ISR.c ****     
  34:Generated_Source\PSoC4/ISR.c **** /* `#END` */
  35:Generated_Source\PSoC4/ISR.c **** 
  36:Generated_Source\PSoC4/ISR.c **** extern cyisraddress CyRamVectors[CYINT_IRQ_BASE + CY_NUM_INTERRUPTS];
  37:Generated_Source\PSoC4/ISR.c **** 
  38:Generated_Source\PSoC4/ISR.c **** /* Declared in startup, used to set unused interrupts to. */
  39:Generated_Source\PSoC4/ISR.c **** CY_ISR_PROTO(IntDefaultHandler);
  40:Generated_Source\PSoC4/ISR.c **** 
  41:Generated_Source\PSoC4/ISR.c **** 
  42:Generated_Source\PSoC4/ISR.c **** /*******************************************************************************
  43:Generated_Source\PSoC4/ISR.c **** * Function Name: ISR_Start
  44:Generated_Source\PSoC4/ISR.c **** ********************************************************************************
  45:Generated_Source\PSoC4/ISR.c **** *
  46:Generated_Source\PSoC4/ISR.c **** * Summary:
  47:Generated_Source\PSoC4/ISR.c **** *  Set up the interrupt and enable it. This function disables the interrupt, 
  48:Generated_Source\PSoC4/ISR.c **** *  sets the default interrupt vector, sets the priority from the value in the
  49:Generated_Source\PSoC4/ISR.c **** *  Design Wide Resources Interrupt Editor, then enables the interrupt to the 
  50:Generated_Source\PSoC4/ISR.c **** *  interrupt controller.
  51:Generated_Source\PSoC4/ISR.c **** *
  52:Generated_Source\PSoC4/ISR.c **** * Parameters:  
  53:Generated_Source\PSoC4/ISR.c **** *   None
  54:Generated_Source\PSoC4/ISR.c **** *
  55:Generated_Source\PSoC4/ISR.c **** * Return:
  56:Generated_Source\PSoC4/ISR.c **** *   None
  57:Generated_Source\PSoC4/ISR.c **** *
  58:Generated_Source\PSoC4/ISR.c **** *******************************************************************************/
  59:Generated_Source\PSoC4/ISR.c **** void ISR_Start(void)
  60:Generated_Source\PSoC4/ISR.c **** {
  28              		.loc 1 60 0
  29              		.cfi_startproc
  30              		@ args = 0, pretend = 0, frame = 0
  31              		@ frame_needed = 1, uses_anonymous_args = 0
  32 0000 80B5     		push	{r7, lr}
  33              		.cfi_def_cfa_offset 8
  34              		.cfi_offset 7, -8
  35              		.cfi_offset 14, -4
  36 0002 00AF     		add	r7, sp, #0
  37              		.cfi_def_cfa_register 7
  61:Generated_Source\PSoC4/ISR.c ****     /* For all we know the interrupt is active. */
  62:Generated_Source\PSoC4/ISR.c ****     ISR_Disable();
  38              		.loc 1 62 0
  39 0004 FFF7FEFF 		bl	ISR_Disable
  63:Generated_Source\PSoC4/ISR.c **** 
  64:Generated_Source\PSoC4/ISR.c ****     /* Set the ISR to point to the ISR Interrupt. */
  65:Generated_Source\PSoC4/ISR.c ****     ISR_SetVector(&ISR_Interrupt);
  40              		.loc 1 65 0
  41 0008 054B     		ldr	r3, .L2
  42 000a 1800     		movs	r0, r3
  43 000c FFF7FEFF 		bl	ISR_SetVector
  66:Generated_Source\PSoC4/ISR.c **** 
  67:Generated_Source\PSoC4/ISR.c ****     /* Set the priority. */
  68:Generated_Source\PSoC4/ISR.c ****     ISR_SetPriority((uint8)ISR_INTC_PRIOR_NUMBER);
  44              		.loc 1 68 0
  45 0010 0320     		movs	r0, #3
  46 0012 FFF7FEFF 		bl	ISR_SetPriority
ARM GAS  C:\Users\Arturo\AppData\Local\Temp\ccAsP1on.s 			page 3


  69:Generated_Source\PSoC4/ISR.c **** 
  70:Generated_Source\PSoC4/ISR.c ****     /* Enable it. */
  71:Generated_Source\PSoC4/ISR.c ****     ISR_Enable();
  47              		.loc 1 71 0
  48 0016 FFF7FEFF 		bl	ISR_Enable
  72:Generated_Source\PSoC4/ISR.c **** }
  49              		.loc 1 72 0
  50 001a C046     		nop
  51 001c BD46     		mov	sp, r7
  52              		@ sp needed
  53 001e 80BD     		pop	{r7, pc}
  54              	.L3:
  55              		.align	2
  56              	.L2:
  57 0020 00000000 		.word	ISR_Interrupt
  58              		.cfi_endproc
  59              	.LFE32:
  60              		.size	ISR_Start, .-ISR_Start
  61              		.section	.text.ISR_StartEx,"ax",%progbits
  62              		.align	2
  63              		.global	ISR_StartEx
  64              		.code	16
  65              		.thumb_func
  66              		.type	ISR_StartEx, %function
  67              	ISR_StartEx:
  68              	.LFB33:
  73:Generated_Source\PSoC4/ISR.c **** 
  74:Generated_Source\PSoC4/ISR.c **** 
  75:Generated_Source\PSoC4/ISR.c **** /*******************************************************************************
  76:Generated_Source\PSoC4/ISR.c **** * Function Name: ISR_StartEx
  77:Generated_Source\PSoC4/ISR.c **** ********************************************************************************
  78:Generated_Source\PSoC4/ISR.c **** *
  79:Generated_Source\PSoC4/ISR.c **** * Summary:
  80:Generated_Source\PSoC4/ISR.c **** *  Sets up the interrupt and enables it. This function disables the interrupt,
  81:Generated_Source\PSoC4/ISR.c **** *  sets the interrupt vector based on the address passed in, sets the priority 
  82:Generated_Source\PSoC4/ISR.c **** *  from the value in the Design Wide Resources Interrupt Editor, then enables 
  83:Generated_Source\PSoC4/ISR.c **** *  the interrupt to the interrupt controller.
  84:Generated_Source\PSoC4/ISR.c **** *  
  85:Generated_Source\PSoC4/ISR.c **** *  When defining ISR functions, the CY_ISR and CY_ISR_PROTO macros should be 
  86:Generated_Source\PSoC4/ISR.c **** *  used to provide consistent definition across compilers:
  87:Generated_Source\PSoC4/ISR.c **** *  
  88:Generated_Source\PSoC4/ISR.c **** *  Function definition example:
  89:Generated_Source\PSoC4/ISR.c **** *   CY_ISR(MyISR)
  90:Generated_Source\PSoC4/ISR.c **** *   {
  91:Generated_Source\PSoC4/ISR.c **** *   }
  92:Generated_Source\PSoC4/ISR.c **** *   Function prototype example:
  93:Generated_Source\PSoC4/ISR.c **** *   CY_ISR_PROTO(MyISR);
  94:Generated_Source\PSoC4/ISR.c **** *
  95:Generated_Source\PSoC4/ISR.c **** * Parameters:  
  96:Generated_Source\PSoC4/ISR.c **** *   address: Address of the ISR to set in the interrupt vector table.
  97:Generated_Source\PSoC4/ISR.c **** *
  98:Generated_Source\PSoC4/ISR.c **** * Return:
  99:Generated_Source\PSoC4/ISR.c **** *   None
 100:Generated_Source\PSoC4/ISR.c **** *
 101:Generated_Source\PSoC4/ISR.c **** *******************************************************************************/
 102:Generated_Source\PSoC4/ISR.c **** void ISR_StartEx(cyisraddress address)
 103:Generated_Source\PSoC4/ISR.c **** {
ARM GAS  C:\Users\Arturo\AppData\Local\Temp\ccAsP1on.s 			page 4


  69              		.loc 1 103 0
  70              		.cfi_startproc
  71              		@ args = 0, pretend = 0, frame = 8
  72              		@ frame_needed = 1, uses_anonymous_args = 0
  73 0000 80B5     		push	{r7, lr}
  74              		.cfi_def_cfa_offset 8
  75              		.cfi_offset 7, -8
  76              		.cfi_offset 14, -4
  77 0002 82B0     		sub	sp, sp, #8
  78              		.cfi_def_cfa_offset 16
  79 0004 00AF     		add	r7, sp, #0
  80              		.cfi_def_cfa_register 7
  81 0006 7860     		str	r0, [r7, #4]
 104:Generated_Source\PSoC4/ISR.c ****     /* For all we know the interrupt is active. */
 105:Generated_Source\PSoC4/ISR.c ****     ISR_Disable();
  82              		.loc 1 105 0
  83 0008 FFF7FEFF 		bl	ISR_Disable
 106:Generated_Source\PSoC4/ISR.c **** 
 107:Generated_Source\PSoC4/ISR.c ****     /* Set the ISR to point to the ISR Interrupt. */
 108:Generated_Source\PSoC4/ISR.c ****     ISR_SetVector(address);
  84              		.loc 1 108 0
  85 000c 7B68     		ldr	r3, [r7, #4]
  86 000e 1800     		movs	r0, r3
  87 0010 FFF7FEFF 		bl	ISR_SetVector
 109:Generated_Source\PSoC4/ISR.c **** 
 110:Generated_Source\PSoC4/ISR.c ****     /* Set the priority. */
 111:Generated_Source\PSoC4/ISR.c ****     ISR_SetPriority((uint8)ISR_INTC_PRIOR_NUMBER);
  88              		.loc 1 111 0
  89 0014 0320     		movs	r0, #3
  90 0016 FFF7FEFF 		bl	ISR_SetPriority
 112:Generated_Source\PSoC4/ISR.c **** 
 113:Generated_Source\PSoC4/ISR.c ****     /* Enable it. */
 114:Generated_Source\PSoC4/ISR.c ****     ISR_Enable();
  91              		.loc 1 114 0
  92 001a FFF7FEFF 		bl	ISR_Enable
 115:Generated_Source\PSoC4/ISR.c **** }
  93              		.loc 1 115 0
  94 001e C046     		nop
  95 0020 BD46     		mov	sp, r7
  96 0022 02B0     		add	sp, sp, #8
  97              		@ sp needed
  98 0024 80BD     		pop	{r7, pc}
  99              		.cfi_endproc
 100              	.LFE33:
 101              		.size	ISR_StartEx, .-ISR_StartEx
 102 0026 C046     		.section	.text.ISR_Stop,"ax",%progbits
 103              		.align	2
 104              		.global	ISR_Stop
 105              		.code	16
 106              		.thumb_func
 107              		.type	ISR_Stop, %function
 108              	ISR_Stop:
 109              	.LFB34:
 116:Generated_Source\PSoC4/ISR.c **** 
 117:Generated_Source\PSoC4/ISR.c **** 
 118:Generated_Source\PSoC4/ISR.c **** /*******************************************************************************
 119:Generated_Source\PSoC4/ISR.c **** * Function Name: ISR_Stop
ARM GAS  C:\Users\Arturo\AppData\Local\Temp\ccAsP1on.s 			page 5


 120:Generated_Source\PSoC4/ISR.c **** ********************************************************************************
 121:Generated_Source\PSoC4/ISR.c **** *
 122:Generated_Source\PSoC4/ISR.c **** * Summary:
 123:Generated_Source\PSoC4/ISR.c **** *   Disables and removes the interrupt.
 124:Generated_Source\PSoC4/ISR.c **** *
 125:Generated_Source\PSoC4/ISR.c **** * Parameters:  
 126:Generated_Source\PSoC4/ISR.c **** *   None
 127:Generated_Source\PSoC4/ISR.c **** *
 128:Generated_Source\PSoC4/ISR.c **** * Return:
 129:Generated_Source\PSoC4/ISR.c **** *   None
 130:Generated_Source\PSoC4/ISR.c **** *
 131:Generated_Source\PSoC4/ISR.c **** *******************************************************************************/
 132:Generated_Source\PSoC4/ISR.c **** void ISR_Stop(void)
 133:Generated_Source\PSoC4/ISR.c **** {
 110              		.loc 1 133 0
 111              		.cfi_startproc
 112              		@ args = 0, pretend = 0, frame = 0
 113              		@ frame_needed = 1, uses_anonymous_args = 0
 114 0000 80B5     		push	{r7, lr}
 115              		.cfi_def_cfa_offset 8
 116              		.cfi_offset 7, -8
 117              		.cfi_offset 14, -4
 118 0002 00AF     		add	r7, sp, #0
 119              		.cfi_def_cfa_register 7
 134:Generated_Source\PSoC4/ISR.c ****     /* Disable this interrupt. */
 135:Generated_Source\PSoC4/ISR.c ****     ISR_Disable();
 120              		.loc 1 135 0
 121 0004 FFF7FEFF 		bl	ISR_Disable
 136:Generated_Source\PSoC4/ISR.c **** 
 137:Generated_Source\PSoC4/ISR.c ****     /* Set the ISR to point to the passive one. */
 138:Generated_Source\PSoC4/ISR.c ****     ISR_SetVector(&IntDefaultHandler);
 122              		.loc 1 138 0
 123 0008 034B     		ldr	r3, .L6
 124 000a 1800     		movs	r0, r3
 125 000c FFF7FEFF 		bl	ISR_SetVector
 139:Generated_Source\PSoC4/ISR.c **** }
 126              		.loc 1 139 0
 127 0010 C046     		nop
 128 0012 BD46     		mov	sp, r7
 129              		@ sp needed
 130 0014 80BD     		pop	{r7, pc}
 131              	.L7:
 132 0016 C046     		.align	2
 133              	.L6:
 134 0018 00000000 		.word	IntDefaultHandler
 135              		.cfi_endproc
 136              	.LFE34:
 137              		.size	ISR_Stop, .-ISR_Stop
 138              		.section	.text.ISR_Interrupt,"ax",%progbits
 139              		.align	2
 140              		.global	ISR_Interrupt
 141              		.code	16
 142              		.thumb_func
 143              		.type	ISR_Interrupt, %function
 144              	ISR_Interrupt:
 145              	.LFB35:
 140:Generated_Source\PSoC4/ISR.c **** 
ARM GAS  C:\Users\Arturo\AppData\Local\Temp\ccAsP1on.s 			page 6


 141:Generated_Source\PSoC4/ISR.c **** 
 142:Generated_Source\PSoC4/ISR.c **** /*******************************************************************************
 143:Generated_Source\PSoC4/ISR.c **** * Function Name: ISR_Interrupt
 144:Generated_Source\PSoC4/ISR.c **** ********************************************************************************
 145:Generated_Source\PSoC4/ISR.c **** *
 146:Generated_Source\PSoC4/ISR.c **** * Summary:
 147:Generated_Source\PSoC4/ISR.c **** *   The default Interrupt Service Routine for ISR.
 148:Generated_Source\PSoC4/ISR.c **** *
 149:Generated_Source\PSoC4/ISR.c **** *   Add custom code between the START and END comments to keep the next version
 150:Generated_Source\PSoC4/ISR.c **** *   of this file from over-writing your code.
 151:Generated_Source\PSoC4/ISR.c **** *
 152:Generated_Source\PSoC4/ISR.c **** *   Note You may use either the default ISR by using this API, or you may define
 153:Generated_Source\PSoC4/ISR.c **** *   your own separate ISR through ISR_StartEx().
 154:Generated_Source\PSoC4/ISR.c **** *
 155:Generated_Source\PSoC4/ISR.c **** * Parameters:  
 156:Generated_Source\PSoC4/ISR.c **** *   None
 157:Generated_Source\PSoC4/ISR.c **** *
 158:Generated_Source\PSoC4/ISR.c **** * Return:
 159:Generated_Source\PSoC4/ISR.c **** *   None
 160:Generated_Source\PSoC4/ISR.c **** *
 161:Generated_Source\PSoC4/ISR.c **** *******************************************************************************/
 162:Generated_Source\PSoC4/ISR.c **** CY_ISR(ISR_Interrupt)
 163:Generated_Source\PSoC4/ISR.c **** {
 146              		.loc 1 163 0
 147              		.cfi_startproc
 148              		@ args = 0, pretend = 0, frame = 0
 149              		@ frame_needed = 1, uses_anonymous_args = 0
 150 0000 80B5     		push	{r7, lr}
 151              		.cfi_def_cfa_offset 8
 152              		.cfi_offset 7, -8
 153              		.cfi_offset 14, -4
 154 0002 00AF     		add	r7, sp, #0
 155              		.cfi_def_cfa_register 7
 164:Generated_Source\PSoC4/ISR.c ****     #ifdef ISR_INTERRUPT_INTERRUPT_CALLBACK
 165:Generated_Source\PSoC4/ISR.c ****         ISR_Interrupt_InterruptCallback();
 166:Generated_Source\PSoC4/ISR.c ****     #endif /* ISR_INTERRUPT_INTERRUPT_CALLBACK */ 
 167:Generated_Source\PSoC4/ISR.c **** 
 168:Generated_Source\PSoC4/ISR.c ****     /*  Place your Interrupt code here. */
 169:Generated_Source\PSoC4/ISR.c ****     /* `#START ISR_Interrupt` */
 170:Generated_Source\PSoC4/ISR.c ****     TCPWM_1_ClearInterrupt(TCPWM_1_INTR_MASK_TC);
 156              		.loc 1 170 0
 157 0004 0120     		movs	r0, #1
 158 0006 FFF7FEFF 		bl	TCPWM_1_ClearInterrupt
 171:Generated_Source\PSoC4/ISR.c ****     flag=1;
 159              		.loc 1 171 0
 160 000a 034B     		ldr	r3, .L9
 161 000c 0122     		movs	r2, #1
 162 000e 1A60     		str	r2, [r3]
 172:Generated_Source\PSoC4/ISR.c ****     /* `#END` */
 173:Generated_Source\PSoC4/ISR.c **** }
 163              		.loc 1 173 0
 164 0010 C046     		nop
 165 0012 BD46     		mov	sp, r7
 166              		@ sp needed
 167 0014 80BD     		pop	{r7, pc}
 168              	.L10:
 169 0016 C046     		.align	2
ARM GAS  C:\Users\Arturo\AppData\Local\Temp\ccAsP1on.s 			page 7


 170              	.L9:
 171 0018 00000000 		.word	flag
 172              		.cfi_endproc
 173              	.LFE35:
 174              		.size	ISR_Interrupt, .-ISR_Interrupt
 175              		.section	.text.ISR_SetVector,"ax",%progbits
 176              		.align	2
 177              		.global	ISR_SetVector
 178              		.code	16
 179              		.thumb_func
 180              		.type	ISR_SetVector, %function
 181              	ISR_SetVector:
 182              	.LFB36:
 174:Generated_Source\PSoC4/ISR.c **** 
 175:Generated_Source\PSoC4/ISR.c **** 
 176:Generated_Source\PSoC4/ISR.c **** /*******************************************************************************
 177:Generated_Source\PSoC4/ISR.c **** * Function Name: ISR_SetVector
 178:Generated_Source\PSoC4/ISR.c **** ********************************************************************************
 179:Generated_Source\PSoC4/ISR.c **** *
 180:Generated_Source\PSoC4/ISR.c **** * Summary:
 181:Generated_Source\PSoC4/ISR.c **** *   Change the ISR vector for the Interrupt. Note calling ISR_Start
 182:Generated_Source\PSoC4/ISR.c **** *   will override any effect this method would have had. To set the vector 
 183:Generated_Source\PSoC4/ISR.c **** *   before the component has been started use ISR_StartEx instead.
 184:Generated_Source\PSoC4/ISR.c **** * 
 185:Generated_Source\PSoC4/ISR.c **** *   When defining ISR functions, the CY_ISR and CY_ISR_PROTO macros should be 
 186:Generated_Source\PSoC4/ISR.c **** *   used to provide consistent definition across compilers:
 187:Generated_Source\PSoC4/ISR.c **** *
 188:Generated_Source\PSoC4/ISR.c **** *   Function definition example:
 189:Generated_Source\PSoC4/ISR.c **** *   CY_ISR(MyISR)
 190:Generated_Source\PSoC4/ISR.c **** *   {
 191:Generated_Source\PSoC4/ISR.c **** *   }
 192:Generated_Source\PSoC4/ISR.c **** *
 193:Generated_Source\PSoC4/ISR.c **** *   Function prototype example:
 194:Generated_Source\PSoC4/ISR.c **** *     CY_ISR_PROTO(MyISR);
 195:Generated_Source\PSoC4/ISR.c **** *
 196:Generated_Source\PSoC4/ISR.c **** * Parameters:
 197:Generated_Source\PSoC4/ISR.c **** *   address: Address of the ISR to set in the interrupt vector table.
 198:Generated_Source\PSoC4/ISR.c **** *
 199:Generated_Source\PSoC4/ISR.c **** * Return:
 200:Generated_Source\PSoC4/ISR.c **** *   None
 201:Generated_Source\PSoC4/ISR.c **** *
 202:Generated_Source\PSoC4/ISR.c **** *******************************************************************************/
 203:Generated_Source\PSoC4/ISR.c **** void ISR_SetVector(cyisraddress address)
 204:Generated_Source\PSoC4/ISR.c **** {
 183              		.loc 1 204 0
 184              		.cfi_startproc
 185              		@ args = 0, pretend = 0, frame = 8
 186              		@ frame_needed = 1, uses_anonymous_args = 0
 187 0000 80B5     		push	{r7, lr}
 188              		.cfi_def_cfa_offset 8
 189              		.cfi_offset 7, -8
 190              		.cfi_offset 14, -4
 191 0002 82B0     		sub	sp, sp, #8
 192              		.cfi_def_cfa_offset 16
 193 0004 00AF     		add	r7, sp, #0
 194              		.cfi_def_cfa_register 7
 195 0006 7860     		str	r0, [r7, #4]
ARM GAS  C:\Users\Arturo\AppData\Local\Temp\ccAsP1on.s 			page 8


 205:Generated_Source\PSoC4/ISR.c ****     CyRamVectors[CYINT_IRQ_BASE + ISR__INTC_NUMBER] = address;
 196              		.loc 1 205 0
 197 0008 034B     		ldr	r3, .L12
 198 000a 8021     		movs	r1, #128
 199 000c 7A68     		ldr	r2, [r7, #4]
 200 000e 5A50     		str	r2, [r3, r1]
 206:Generated_Source\PSoC4/ISR.c **** }
 201              		.loc 1 206 0
 202 0010 C046     		nop
 203 0012 BD46     		mov	sp, r7
 204 0014 02B0     		add	sp, sp, #8
 205              		@ sp needed
 206 0016 80BD     		pop	{r7, pc}
 207              	.L13:
 208              		.align	2
 209              	.L12:
 210 0018 00000000 		.word	CyRamVectors
 211              		.cfi_endproc
 212              	.LFE36:
 213              		.size	ISR_SetVector, .-ISR_SetVector
 214              		.section	.text.ISR_GetVector,"ax",%progbits
 215              		.align	2
 216              		.global	ISR_GetVector
 217              		.code	16
 218              		.thumb_func
 219              		.type	ISR_GetVector, %function
 220              	ISR_GetVector:
 221              	.LFB37:
 207:Generated_Source\PSoC4/ISR.c **** 
 208:Generated_Source\PSoC4/ISR.c **** 
 209:Generated_Source\PSoC4/ISR.c **** /*******************************************************************************
 210:Generated_Source\PSoC4/ISR.c **** * Function Name: ISR_GetVector
 211:Generated_Source\PSoC4/ISR.c **** ********************************************************************************
 212:Generated_Source\PSoC4/ISR.c **** *
 213:Generated_Source\PSoC4/ISR.c **** * Summary:
 214:Generated_Source\PSoC4/ISR.c **** *   Gets the "address" of the current ISR vector for the Interrupt.
 215:Generated_Source\PSoC4/ISR.c **** *
 216:Generated_Source\PSoC4/ISR.c **** * Parameters:
 217:Generated_Source\PSoC4/ISR.c **** *   None
 218:Generated_Source\PSoC4/ISR.c **** *
 219:Generated_Source\PSoC4/ISR.c **** * Return:
 220:Generated_Source\PSoC4/ISR.c **** *   Address of the ISR in the interrupt vector table.
 221:Generated_Source\PSoC4/ISR.c **** *
 222:Generated_Source\PSoC4/ISR.c **** *******************************************************************************/
 223:Generated_Source\PSoC4/ISR.c **** cyisraddress ISR_GetVector(void)
 224:Generated_Source\PSoC4/ISR.c **** {
 222              		.loc 1 224 0
 223              		.cfi_startproc
 224              		@ args = 0, pretend = 0, frame = 0
 225              		@ frame_needed = 1, uses_anonymous_args = 0
 226 0000 80B5     		push	{r7, lr}
 227              		.cfi_def_cfa_offset 8
 228              		.cfi_offset 7, -8
 229              		.cfi_offset 14, -4
 230 0002 00AF     		add	r7, sp, #0
 231              		.cfi_def_cfa_register 7
 225:Generated_Source\PSoC4/ISR.c ****     return CyRamVectors[CYINT_IRQ_BASE + ISR__INTC_NUMBER];
ARM GAS  C:\Users\Arturo\AppData\Local\Temp\ccAsP1on.s 			page 9


 232              		.loc 1 225 0
 233 0004 024B     		ldr	r3, .L16
 234 0006 8022     		movs	r2, #128
 235 0008 9B58     		ldr	r3, [r3, r2]
 226:Generated_Source\PSoC4/ISR.c **** }
 236              		.loc 1 226 0
 237 000a 1800     		movs	r0, r3
 238 000c BD46     		mov	sp, r7
 239              		@ sp needed
 240 000e 80BD     		pop	{r7, pc}
 241              	.L17:
 242              		.align	2
 243              	.L16:
 244 0010 00000000 		.word	CyRamVectors
 245              		.cfi_endproc
 246              	.LFE37:
 247              		.size	ISR_GetVector, .-ISR_GetVector
 248              		.section	.text.ISR_SetPriority,"ax",%progbits
 249              		.align	2
 250              		.global	ISR_SetPriority
 251              		.code	16
 252              		.thumb_func
 253              		.type	ISR_SetPriority, %function
 254              	ISR_SetPriority:
 255              	.LFB38:
 227:Generated_Source\PSoC4/ISR.c **** 
 228:Generated_Source\PSoC4/ISR.c **** 
 229:Generated_Source\PSoC4/ISR.c **** /*******************************************************************************
 230:Generated_Source\PSoC4/ISR.c **** * Function Name: ISR_SetPriority
 231:Generated_Source\PSoC4/ISR.c **** ********************************************************************************
 232:Generated_Source\PSoC4/ISR.c **** *
 233:Generated_Source\PSoC4/ISR.c **** * Summary:
 234:Generated_Source\PSoC4/ISR.c **** *   Sets the Priority of the Interrupt. 
 235:Generated_Source\PSoC4/ISR.c **** *
 236:Generated_Source\PSoC4/ISR.c **** *   Note calling ISR_Start or ISR_StartEx will 
 237:Generated_Source\PSoC4/ISR.c **** *   override any effect this API would have had. This API should only be called
 238:Generated_Source\PSoC4/ISR.c **** *   after ISR_Start or ISR_StartEx has been called. 
 239:Generated_Source\PSoC4/ISR.c **** *   To set the initial priority for the component, use the Design-Wide Resources
 240:Generated_Source\PSoC4/ISR.c **** *   Interrupt Editor.
 241:Generated_Source\PSoC4/ISR.c **** *
 242:Generated_Source\PSoC4/ISR.c **** *   Note This API has no effect on Non-maskable interrupt NMI).
 243:Generated_Source\PSoC4/ISR.c **** *
 244:Generated_Source\PSoC4/ISR.c **** * Parameters:
 245:Generated_Source\PSoC4/ISR.c **** *   priority: Priority of the interrupt, 0 being the highest priority
 246:Generated_Source\PSoC4/ISR.c **** *             PSoC 3 and PSoC 5LP: Priority is from 0 to 7.
 247:Generated_Source\PSoC4/ISR.c **** *             PSoC 4: Priority is from 0 to 3.
 248:Generated_Source\PSoC4/ISR.c **** *
 249:Generated_Source\PSoC4/ISR.c **** * Return:
 250:Generated_Source\PSoC4/ISR.c **** *   None
 251:Generated_Source\PSoC4/ISR.c **** *
 252:Generated_Source\PSoC4/ISR.c **** *******************************************************************************/
 253:Generated_Source\PSoC4/ISR.c **** void ISR_SetPriority(uint8 priority)
 254:Generated_Source\PSoC4/ISR.c **** {
 256              		.loc 1 254 0
 257              		.cfi_startproc
 258              		@ args = 0, pretend = 0, frame = 16
 259              		@ frame_needed = 1, uses_anonymous_args = 0
ARM GAS  C:\Users\Arturo\AppData\Local\Temp\ccAsP1on.s 			page 10


 260 0000 90B5     		push	{r4, r7, lr}
 261              		.cfi_def_cfa_offset 12
 262              		.cfi_offset 4, -12
 263              		.cfi_offset 7, -8
 264              		.cfi_offset 14, -4
 265 0002 85B0     		sub	sp, sp, #20
 266              		.cfi_def_cfa_offset 32
 267 0004 00AF     		add	r7, sp, #0
 268              		.cfi_def_cfa_register 7
 269 0006 0200     		movs	r2, r0
 270 0008 FB1D     		adds	r3, r7, #7
 271 000a 1A70     		strb	r2, [r3]
 255:Generated_Source\PSoC4/ISR.c **** 	uint8 interruptState;
 256:Generated_Source\PSoC4/ISR.c ****     uint32 priorityOffset = ((ISR__INTC_NUMBER % 4u) * 8u) + 6u;
 272              		.loc 1 256 0
 273 000c 0623     		movs	r3, #6
 274 000e FB60     		str	r3, [r7, #12]
 257:Generated_Source\PSoC4/ISR.c ****     
 258:Generated_Source\PSoC4/ISR.c **** 	interruptState = CyEnterCriticalSection();
 275              		.loc 1 258 0
 276 0010 0B23     		movs	r3, #11
 277 0012 FC18     		adds	r4, r7, r3
 278 0014 FFF7FEFF 		bl	CyEnterCriticalSection
 279 0018 0300     		movs	r3, r0
 280 001a 2370     		strb	r3, [r4]
 259:Generated_Source\PSoC4/ISR.c ****     *ISR_INTC_PRIOR = (*ISR_INTC_PRIOR & (uint32)(~(uint32)ISR__INTC_PRIOR_MASK)) |
 281              		.loc 1 259 0
 282 001c 0B4B     		ldr	r3, .L19
 283 001e 0B4A     		ldr	r2, .L19
 284 0020 1268     		ldr	r2, [r2]
 285 0022 C021     		movs	r1, #192
 286 0024 8A43     		bics	r2, r1
 287 0026 1100     		movs	r1, r2
 260:Generated_Source\PSoC4/ISR.c ****                                     ((uint32)priority << priorityOffset);
 288              		.loc 1 260 0
 289 0028 FA1D     		adds	r2, r7, #7
 290 002a 1078     		ldrb	r0, [r2]
 291 002c FA68     		ldr	r2, [r7, #12]
 292 002e 9040     		lsls	r0, r0, r2
 293 0030 0200     		movs	r2, r0
 259:Generated_Source\PSoC4/ISR.c ****     *ISR_INTC_PRIOR = (*ISR_INTC_PRIOR & (uint32)(~(uint32)ISR__INTC_PRIOR_MASK)) |
 294              		.loc 1 259 0
 295 0032 0A43     		orrs	r2, r1
 296 0034 1A60     		str	r2, [r3]
 261:Generated_Source\PSoC4/ISR.c **** 	CyExitCriticalSection(interruptState);
 297              		.loc 1 261 0
 298 0036 0B23     		movs	r3, #11
 299 0038 FB18     		adds	r3, r7, r3
 300 003a 1B78     		ldrb	r3, [r3]
 301 003c 1800     		movs	r0, r3
 302 003e FFF7FEFF 		bl	CyExitCriticalSection
 262:Generated_Source\PSoC4/ISR.c **** }
 303              		.loc 1 262 0
 304 0042 C046     		nop
 305 0044 BD46     		mov	sp, r7
 306 0046 05B0     		add	sp, sp, #20
 307              		@ sp needed
ARM GAS  C:\Users\Arturo\AppData\Local\Temp\ccAsP1on.s 			page 11


 308 0048 90BD     		pop	{r4, r7, pc}
 309              	.L20:
 310 004a C046     		.align	2
 311              	.L19:
 312 004c 10E400E0 		.word	-536812528
 313              		.cfi_endproc
 314              	.LFE38:
 315              		.size	ISR_SetPriority, .-ISR_SetPriority
 316              		.section	.text.ISR_GetPriority,"ax",%progbits
 317              		.align	2
 318              		.global	ISR_GetPriority
 319              		.code	16
 320              		.thumb_func
 321              		.type	ISR_GetPriority, %function
 322              	ISR_GetPriority:
 323              	.LFB39:
 263:Generated_Source\PSoC4/ISR.c **** 
 264:Generated_Source\PSoC4/ISR.c **** 
 265:Generated_Source\PSoC4/ISR.c **** /*******************************************************************************
 266:Generated_Source\PSoC4/ISR.c **** * Function Name: ISR_GetPriority
 267:Generated_Source\PSoC4/ISR.c **** ********************************************************************************
 268:Generated_Source\PSoC4/ISR.c **** *
 269:Generated_Source\PSoC4/ISR.c **** * Summary:
 270:Generated_Source\PSoC4/ISR.c **** *   Gets the Priority of the Interrupt.
 271:Generated_Source\PSoC4/ISR.c **** *
 272:Generated_Source\PSoC4/ISR.c **** * Parameters:
 273:Generated_Source\PSoC4/ISR.c **** *   None
 274:Generated_Source\PSoC4/ISR.c **** *
 275:Generated_Source\PSoC4/ISR.c **** * Return:
 276:Generated_Source\PSoC4/ISR.c **** *   Priority of the interrupt, 0 being the highest priority
 277:Generated_Source\PSoC4/ISR.c **** *    PSoC 3 and PSoC 5LP: Priority is from 0 to 7.
 278:Generated_Source\PSoC4/ISR.c **** *    PSoC 4: Priority is from 0 to 3.
 279:Generated_Source\PSoC4/ISR.c **** *
 280:Generated_Source\PSoC4/ISR.c **** *******************************************************************************/
 281:Generated_Source\PSoC4/ISR.c **** uint8 ISR_GetPriority(void)
 282:Generated_Source\PSoC4/ISR.c **** {
 324              		.loc 1 282 0
 325              		.cfi_startproc
 326              		@ args = 0, pretend = 0, frame = 8
 327              		@ frame_needed = 1, uses_anonymous_args = 0
 328 0000 80B5     		push	{r7, lr}
 329              		.cfi_def_cfa_offset 8
 330              		.cfi_offset 7, -8
 331              		.cfi_offset 14, -4
 332 0002 82B0     		sub	sp, sp, #8
 333              		.cfi_def_cfa_offset 16
 334 0004 00AF     		add	r7, sp, #0
 335              		.cfi_def_cfa_register 7
 283:Generated_Source\PSoC4/ISR.c ****     uint32 priority;
 284:Generated_Source\PSoC4/ISR.c **** 	uint32 priorityOffset = ((ISR__INTC_NUMBER % 4u) * 8u) + 6u;
 336              		.loc 1 284 0
 337 0006 0623     		movs	r3, #6
 338 0008 7B60     		str	r3, [r7, #4]
 285:Generated_Source\PSoC4/ISR.c **** 
 286:Generated_Source\PSoC4/ISR.c ****     priority = (*ISR_INTC_PRIOR & ISR__INTC_PRIOR_MASK) >> priorityOffset;
 339              		.loc 1 286 0
 340 000a 074B     		ldr	r3, .L23
ARM GAS  C:\Users\Arturo\AppData\Local\Temp\ccAsP1on.s 			page 12


 341 000c 1B68     		ldr	r3, [r3]
 342 000e C022     		movs	r2, #192
 343 0010 1A40     		ands	r2, r3
 344 0012 7B68     		ldr	r3, [r7, #4]
 345 0014 DA40     		lsrs	r2, r2, r3
 346 0016 1300     		movs	r3, r2
 347 0018 3B60     		str	r3, [r7]
 287:Generated_Source\PSoC4/ISR.c **** 
 288:Generated_Source\PSoC4/ISR.c ****     return (uint8)priority;
 348              		.loc 1 288 0
 349 001a 3B68     		ldr	r3, [r7]
 350 001c DBB2     		uxtb	r3, r3
 289:Generated_Source\PSoC4/ISR.c **** }
 351              		.loc 1 289 0
 352 001e 1800     		movs	r0, r3
 353 0020 BD46     		mov	sp, r7
 354 0022 02B0     		add	sp, sp, #8
 355              		@ sp needed
 356 0024 80BD     		pop	{r7, pc}
 357              	.L24:
 358 0026 C046     		.align	2
 359              	.L23:
 360 0028 10E400E0 		.word	-536812528
 361              		.cfi_endproc
 362              	.LFE39:
 363              		.size	ISR_GetPriority, .-ISR_GetPriority
 364              		.section	.text.ISR_Enable,"ax",%progbits
 365              		.align	2
 366              		.global	ISR_Enable
 367              		.code	16
 368              		.thumb_func
 369              		.type	ISR_Enable, %function
 370              	ISR_Enable:
 371              	.LFB40:
 290:Generated_Source\PSoC4/ISR.c **** 
 291:Generated_Source\PSoC4/ISR.c **** 
 292:Generated_Source\PSoC4/ISR.c **** /*******************************************************************************
 293:Generated_Source\PSoC4/ISR.c **** * Function Name: ISR_Enable
 294:Generated_Source\PSoC4/ISR.c **** ********************************************************************************
 295:Generated_Source\PSoC4/ISR.c **** *
 296:Generated_Source\PSoC4/ISR.c **** * Summary:
 297:Generated_Source\PSoC4/ISR.c **** *   Enables the interrupt to the interrupt controller. Do not call this function
 298:Generated_Source\PSoC4/ISR.c **** *   unless ISR_Start() has been called or the functionality of the ISR_Start() 
 299:Generated_Source\PSoC4/ISR.c **** *   function, which sets the vector and the priority, has been called.
 300:Generated_Source\PSoC4/ISR.c **** *
 301:Generated_Source\PSoC4/ISR.c **** * Parameters:
 302:Generated_Source\PSoC4/ISR.c **** *   None
 303:Generated_Source\PSoC4/ISR.c **** *
 304:Generated_Source\PSoC4/ISR.c **** * Return:
 305:Generated_Source\PSoC4/ISR.c **** *   None
 306:Generated_Source\PSoC4/ISR.c **** *
 307:Generated_Source\PSoC4/ISR.c **** *******************************************************************************/
 308:Generated_Source\PSoC4/ISR.c **** void ISR_Enable(void)
 309:Generated_Source\PSoC4/ISR.c **** {
 372              		.loc 1 309 0
 373              		.cfi_startproc
 374              		@ args = 0, pretend = 0, frame = 0
ARM GAS  C:\Users\Arturo\AppData\Local\Temp\ccAsP1on.s 			page 13


 375              		@ frame_needed = 1, uses_anonymous_args = 0
 376 0000 80B5     		push	{r7, lr}
 377              		.cfi_def_cfa_offset 8
 378              		.cfi_offset 7, -8
 379              		.cfi_offset 14, -4
 380 0002 00AF     		add	r7, sp, #0
 381              		.cfi_def_cfa_register 7
 310:Generated_Source\PSoC4/ISR.c ****     /* Enable the general interrupt. */
 311:Generated_Source\PSoC4/ISR.c ****     *ISR_INTC_SET_EN = ISR__INTC_MASK;
 382              		.loc 1 311 0
 383 0004 034B     		ldr	r3, .L26
 384 0006 8022     		movs	r2, #128
 385 0008 5202     		lsls	r2, r2, #9
 386 000a 1A60     		str	r2, [r3]
 312:Generated_Source\PSoC4/ISR.c **** }
 387              		.loc 1 312 0
 388 000c C046     		nop
 389 000e BD46     		mov	sp, r7
 390              		@ sp needed
 391 0010 80BD     		pop	{r7, pc}
 392              	.L27:
 393 0012 C046     		.align	2
 394              	.L26:
 395 0014 00E100E0 		.word	-536813312
 396              		.cfi_endproc
 397              	.LFE40:
 398              		.size	ISR_Enable, .-ISR_Enable
 399              		.section	.text.ISR_GetState,"ax",%progbits
 400              		.align	2
 401              		.global	ISR_GetState
 402              		.code	16
 403              		.thumb_func
 404              		.type	ISR_GetState, %function
 405              	ISR_GetState:
 406              	.LFB41:
 313:Generated_Source\PSoC4/ISR.c **** 
 314:Generated_Source\PSoC4/ISR.c **** 
 315:Generated_Source\PSoC4/ISR.c **** /*******************************************************************************
 316:Generated_Source\PSoC4/ISR.c **** * Function Name: ISR_GetState
 317:Generated_Source\PSoC4/ISR.c **** ********************************************************************************
 318:Generated_Source\PSoC4/ISR.c **** *
 319:Generated_Source\PSoC4/ISR.c **** * Summary:
 320:Generated_Source\PSoC4/ISR.c **** *   Gets the state (enabled, disabled) of the Interrupt.
 321:Generated_Source\PSoC4/ISR.c **** *
 322:Generated_Source\PSoC4/ISR.c **** * Parameters:
 323:Generated_Source\PSoC4/ISR.c **** *   None
 324:Generated_Source\PSoC4/ISR.c **** *
 325:Generated_Source\PSoC4/ISR.c **** * Return:
 326:Generated_Source\PSoC4/ISR.c **** *   1 if enabled, 0 if disabled.
 327:Generated_Source\PSoC4/ISR.c **** *
 328:Generated_Source\PSoC4/ISR.c **** *******************************************************************************/
 329:Generated_Source\PSoC4/ISR.c **** uint8 ISR_GetState(void)
 330:Generated_Source\PSoC4/ISR.c **** {
 407              		.loc 1 330 0
 408              		.cfi_startproc
 409              		@ args = 0, pretend = 0, frame = 0
 410              		@ frame_needed = 1, uses_anonymous_args = 0
ARM GAS  C:\Users\Arturo\AppData\Local\Temp\ccAsP1on.s 			page 14


 411 0000 80B5     		push	{r7, lr}
 412              		.cfi_def_cfa_offset 8
 413              		.cfi_offset 7, -8
 414              		.cfi_offset 14, -4
 415 0002 00AF     		add	r7, sp, #0
 416              		.cfi_def_cfa_register 7
 331:Generated_Source\PSoC4/ISR.c ****     /* Get the state of the general interrupt. */
 332:Generated_Source\PSoC4/ISR.c ****     return ((*ISR_INTC_SET_EN & (uint32)ISR__INTC_MASK) != 0u) ? 1u:0u;
 417              		.loc 1 332 0
 418 0004 054B     		ldr	r3, .L32
 419 0006 1A68     		ldr	r2, [r3]
 420 0008 8023     		movs	r3, #128
 421 000a 5B02     		lsls	r3, r3, #9
 422 000c 1340     		ands	r3, r2
 423 000e 01D0     		beq	.L29
 424              		.loc 1 332 0 is_stmt 0 discriminator 1
 425 0010 0123     		movs	r3, #1
 426 0012 00E0     		b	.L30
 427              	.L29:
 428              		.loc 1 332 0 discriminator 2
 429 0014 0023     		movs	r3, #0
 430              	.L30:
 333:Generated_Source\PSoC4/ISR.c **** }
 431              		.loc 1 333 0 is_stmt 1 discriminator 4
 432 0016 1800     		movs	r0, r3
 433 0018 BD46     		mov	sp, r7
 434              		@ sp needed
 435 001a 80BD     		pop	{r7, pc}
 436              	.L33:
 437              		.align	2
 438              	.L32:
 439 001c 00E100E0 		.word	-536813312
 440              		.cfi_endproc
 441              	.LFE41:
 442              		.size	ISR_GetState, .-ISR_GetState
 443              		.section	.text.ISR_Disable,"ax",%progbits
 444              		.align	2
 445              		.global	ISR_Disable
 446              		.code	16
 447              		.thumb_func
 448              		.type	ISR_Disable, %function
 449              	ISR_Disable:
 450              	.LFB42:
 334:Generated_Source\PSoC4/ISR.c **** 
 335:Generated_Source\PSoC4/ISR.c **** 
 336:Generated_Source\PSoC4/ISR.c **** /*******************************************************************************
 337:Generated_Source\PSoC4/ISR.c **** * Function Name: ISR_Disable
 338:Generated_Source\PSoC4/ISR.c **** ********************************************************************************
 339:Generated_Source\PSoC4/ISR.c **** *
 340:Generated_Source\PSoC4/ISR.c **** * Summary:
 341:Generated_Source\PSoC4/ISR.c **** *   Disables the Interrupt in the interrupt controller.
 342:Generated_Source\PSoC4/ISR.c **** *
 343:Generated_Source\PSoC4/ISR.c **** * Parameters:
 344:Generated_Source\PSoC4/ISR.c **** *   None
 345:Generated_Source\PSoC4/ISR.c **** *
 346:Generated_Source\PSoC4/ISR.c **** * Return:
 347:Generated_Source\PSoC4/ISR.c **** *   None
ARM GAS  C:\Users\Arturo\AppData\Local\Temp\ccAsP1on.s 			page 15


 348:Generated_Source\PSoC4/ISR.c **** *
 349:Generated_Source\PSoC4/ISR.c **** *******************************************************************************/
 350:Generated_Source\PSoC4/ISR.c **** void ISR_Disable(void)
 351:Generated_Source\PSoC4/ISR.c **** {
 451              		.loc 1 351 0
 452              		.cfi_startproc
 453              		@ args = 0, pretend = 0, frame = 0
 454              		@ frame_needed = 1, uses_anonymous_args = 0
 455 0000 80B5     		push	{r7, lr}
 456              		.cfi_def_cfa_offset 8
 457              		.cfi_offset 7, -8
 458              		.cfi_offset 14, -4
 459 0002 00AF     		add	r7, sp, #0
 460              		.cfi_def_cfa_register 7
 352:Generated_Source\PSoC4/ISR.c ****     /* Disable the general interrupt. */
 353:Generated_Source\PSoC4/ISR.c ****     *ISR_INTC_CLR_EN = ISR__INTC_MASK;
 461              		.loc 1 353 0
 462 0004 034B     		ldr	r3, .L35
 463 0006 8022     		movs	r2, #128
 464 0008 5202     		lsls	r2, r2, #9
 465 000a 1A60     		str	r2, [r3]
 354:Generated_Source\PSoC4/ISR.c **** }
 466              		.loc 1 354 0
 467 000c C046     		nop
 468 000e BD46     		mov	sp, r7
 469              		@ sp needed
 470 0010 80BD     		pop	{r7, pc}
 471              	.L36:
 472 0012 C046     		.align	2
 473              	.L35:
 474 0014 80E100E0 		.word	-536813184
 475              		.cfi_endproc
 476              	.LFE42:
 477              		.size	ISR_Disable, .-ISR_Disable
 478              		.section	.text.ISR_SetPending,"ax",%progbits
 479              		.align	2
 480              		.global	ISR_SetPending
 481              		.code	16
 482              		.thumb_func
 483              		.type	ISR_SetPending, %function
 484              	ISR_SetPending:
 485              	.LFB43:
 355:Generated_Source\PSoC4/ISR.c **** 
 356:Generated_Source\PSoC4/ISR.c **** 
 357:Generated_Source\PSoC4/ISR.c **** /*******************************************************************************
 358:Generated_Source\PSoC4/ISR.c **** * Function Name: ISR_SetPending
 359:Generated_Source\PSoC4/ISR.c **** ********************************************************************************
 360:Generated_Source\PSoC4/ISR.c **** *
 361:Generated_Source\PSoC4/ISR.c **** * Summary:
 362:Generated_Source\PSoC4/ISR.c **** *   Causes the Interrupt to enter the pending state, a software method of
 363:Generated_Source\PSoC4/ISR.c **** *   generating the interrupt.
 364:Generated_Source\PSoC4/ISR.c **** *
 365:Generated_Source\PSoC4/ISR.c **** * Parameters:
 366:Generated_Source\PSoC4/ISR.c **** *   None
 367:Generated_Source\PSoC4/ISR.c **** *
 368:Generated_Source\PSoC4/ISR.c **** * Return:
 369:Generated_Source\PSoC4/ISR.c **** *   None
ARM GAS  C:\Users\Arturo\AppData\Local\Temp\ccAsP1on.s 			page 16


 370:Generated_Source\PSoC4/ISR.c **** *
 371:Generated_Source\PSoC4/ISR.c **** * Side Effects:
 372:Generated_Source\PSoC4/ISR.c **** *   If interrupts are enabled and the interrupt is set up properly, the ISR is
 373:Generated_Source\PSoC4/ISR.c **** *   entered (depending on the priority of this interrupt and other pending 
 374:Generated_Source\PSoC4/ISR.c **** *   interrupts).
 375:Generated_Source\PSoC4/ISR.c **** *
 376:Generated_Source\PSoC4/ISR.c **** *******************************************************************************/
 377:Generated_Source\PSoC4/ISR.c **** void ISR_SetPending(void)
 378:Generated_Source\PSoC4/ISR.c **** {
 486              		.loc 1 378 0
 487              		.cfi_startproc
 488              		@ args = 0, pretend = 0, frame = 0
 489              		@ frame_needed = 1, uses_anonymous_args = 0
 490 0000 80B5     		push	{r7, lr}
 491              		.cfi_def_cfa_offset 8
 492              		.cfi_offset 7, -8
 493              		.cfi_offset 14, -4
 494 0002 00AF     		add	r7, sp, #0
 495              		.cfi_def_cfa_register 7
 379:Generated_Source\PSoC4/ISR.c ****     *ISR_INTC_SET_PD = ISR__INTC_MASK;
 496              		.loc 1 379 0
 497 0004 034B     		ldr	r3, .L38
 498 0006 8022     		movs	r2, #128
 499 0008 5202     		lsls	r2, r2, #9
 500 000a 1A60     		str	r2, [r3]
 380:Generated_Source\PSoC4/ISR.c **** }
 501              		.loc 1 380 0
 502 000c C046     		nop
 503 000e BD46     		mov	sp, r7
 504              		@ sp needed
 505 0010 80BD     		pop	{r7, pc}
 506              	.L39:
 507 0012 C046     		.align	2
 508              	.L38:
 509 0014 00E200E0 		.word	-536813056
 510              		.cfi_endproc
 511              	.LFE43:
 512              		.size	ISR_SetPending, .-ISR_SetPending
 513              		.section	.text.ISR_ClearPending,"ax",%progbits
 514              		.align	2
 515              		.global	ISR_ClearPending
 516              		.code	16
 517              		.thumb_func
 518              		.type	ISR_ClearPending, %function
 519              	ISR_ClearPending:
 520              	.LFB44:
 381:Generated_Source\PSoC4/ISR.c **** 
 382:Generated_Source\PSoC4/ISR.c **** 
 383:Generated_Source\PSoC4/ISR.c **** /*******************************************************************************
 384:Generated_Source\PSoC4/ISR.c **** * Function Name: ISR_ClearPending
 385:Generated_Source\PSoC4/ISR.c **** ********************************************************************************
 386:Generated_Source\PSoC4/ISR.c **** *
 387:Generated_Source\PSoC4/ISR.c **** * Summary:
 388:Generated_Source\PSoC4/ISR.c **** *   Clears a pending interrupt in the interrupt controller.
 389:Generated_Source\PSoC4/ISR.c **** *
 390:Generated_Source\PSoC4/ISR.c **** *   Note Some interrupt sources are clear-on-read and require the block 
 391:Generated_Source\PSoC4/ISR.c **** *   interrupt/status register to be read/cleared with the appropriate block API 
ARM GAS  C:\Users\Arturo\AppData\Local\Temp\ccAsP1on.s 			page 17


 392:Generated_Source\PSoC4/ISR.c **** *   (GPIO, UART, and so on). Otherwise the ISR will continue to remain in 
 393:Generated_Source\PSoC4/ISR.c **** *   pending state even though the interrupt itself is cleared using this API.
 394:Generated_Source\PSoC4/ISR.c **** *
 395:Generated_Source\PSoC4/ISR.c **** * Parameters:
 396:Generated_Source\PSoC4/ISR.c **** *   None
 397:Generated_Source\PSoC4/ISR.c **** *
 398:Generated_Source\PSoC4/ISR.c **** * Return:
 399:Generated_Source\PSoC4/ISR.c **** *   None
 400:Generated_Source\PSoC4/ISR.c **** *
 401:Generated_Source\PSoC4/ISR.c **** *******************************************************************************/
 402:Generated_Source\PSoC4/ISR.c **** void ISR_ClearPending(void)
 403:Generated_Source\PSoC4/ISR.c **** {
 521              		.loc 1 403 0
 522              		.cfi_startproc
 523              		@ args = 0, pretend = 0, frame = 0
 524              		@ frame_needed = 1, uses_anonymous_args = 0
 525 0000 80B5     		push	{r7, lr}
 526              		.cfi_def_cfa_offset 8
 527              		.cfi_offset 7, -8
 528              		.cfi_offset 14, -4
 529 0002 00AF     		add	r7, sp, #0
 530              		.cfi_def_cfa_register 7
 404:Generated_Source\PSoC4/ISR.c ****     *ISR_INTC_CLR_PD = ISR__INTC_MASK;
 531              		.loc 1 404 0
 532 0004 034B     		ldr	r3, .L41
 533 0006 8022     		movs	r2, #128
 534 0008 5202     		lsls	r2, r2, #9
 535 000a 1A60     		str	r2, [r3]
 405:Generated_Source\PSoC4/ISR.c **** }
 536              		.loc 1 405 0
 537 000c C046     		nop
 538 000e BD46     		mov	sp, r7
 539              		@ sp needed
 540 0010 80BD     		pop	{r7, pc}
 541              	.L42:
 542 0012 C046     		.align	2
 543              	.L41:
 544 0014 80E200E0 		.word	-536812928
 545              		.cfi_endproc
 546              	.LFE44:
 547              		.size	ISR_ClearPending, .-ISR_ClearPending
 548              		.text
 549              	.Letext0:
 550              		.file 2 "Generated_Source\\PSoC4/cytypes.h"