ARM GAS  C:\Users\Arturo\AppData\Local\Temp\ccEIaTUh.s 			page 1


   1              		.syntax unified
   2              		.cpu cortex-m0
   3              		.fpu softvfp
   4              		.eabi_attribute 20, 1
   5              		.eabi_attribute 21, 1
   6              		.eabi_attribute 23, 3
   7              		.eabi_attribute 24, 1
   8              		.eabi_attribute 25, 1
   9              		.eabi_attribute 26, 1
  10              		.eabi_attribute 30, 6
  11              		.eabi_attribute 34, 0
  12              		.eabi_attribute 18, 4
  13              		.thumb
  14              		.syntax unified
  15              		.file	"Simple_TL_Control_1_Count7_1_PM.c"
  16              		.text
  17              	.Ltext0:
  18              		.cfi_sections	.debug_frame
  19              		.comm	Simple_TL_Control_1_Count7_1_backup,2,4
  20              		.section	.text.Simple_TL_Control_1_Count7_1_SaveConfig,"ax",%progbits
  21              		.align	2
  22              		.global	Simple_TL_Control_1_Count7_1_SaveConfig
  23              		.code	16
  24              		.thumb_func
  25              		.type	Simple_TL_Control_1_Count7_1_SaveConfig, %function
  26              	Simple_TL_Control_1_Count7_1_SaveConfig:
  27              	.LFB0:
  28              		.file 1 "Generated_Source\\PSoC4\\Simple_TL_Control_1_Count7_1_PM.c"
   1:Generated_Source\PSoC4/Simple_TL_Control_1_Count7_1_PM.c **** /*******************************************************************************
   2:Generated_Source\PSoC4/Simple_TL_Control_1_Count7_1_PM.c **** * File Name: Simple_TL_Control_1_Count7_1_PM.c
   3:Generated_Source\PSoC4/Simple_TL_Control_1_Count7_1_PM.c **** * Version 1.0
   4:Generated_Source\PSoC4/Simple_TL_Control_1_Count7_1_PM.c **** *
   5:Generated_Source\PSoC4/Simple_TL_Control_1_Count7_1_PM.c **** * Description:
   6:Generated_Source\PSoC4/Simple_TL_Control_1_Count7_1_PM.c **** *  This file provides Low power mode APIs for Count7 component.
   7:Generated_Source\PSoC4/Simple_TL_Control_1_Count7_1_PM.c **** *
   8:Generated_Source\PSoC4/Simple_TL_Control_1_Count7_1_PM.c **** * Note:
   9:Generated_Source\PSoC4/Simple_TL_Control_1_Count7_1_PM.c **** *  None
  10:Generated_Source\PSoC4/Simple_TL_Control_1_Count7_1_PM.c **** *
  11:Generated_Source\PSoC4/Simple_TL_Control_1_Count7_1_PM.c **** ********************************************************************************
  12:Generated_Source\PSoC4/Simple_TL_Control_1_Count7_1_PM.c **** * Copyright 2013, Cypress Semiconductor Corporation.  All rights reserved.
  13:Generated_Source\PSoC4/Simple_TL_Control_1_Count7_1_PM.c **** * You may use this file only in accordance with the license, terms, conditions,
  14:Generated_Source\PSoC4/Simple_TL_Control_1_Count7_1_PM.c **** * disclaimers, and limitations in the end user license agreement accompanying
  15:Generated_Source\PSoC4/Simple_TL_Control_1_Count7_1_PM.c **** * the software package with which this file was provided.
  16:Generated_Source\PSoC4/Simple_TL_Control_1_Count7_1_PM.c **** *******************************************************************************/
  17:Generated_Source\PSoC4/Simple_TL_Control_1_Count7_1_PM.c **** 
  18:Generated_Source\PSoC4/Simple_TL_Control_1_Count7_1_PM.c **** #include "Simple_TL_Control_1_Count7_1.h"
  19:Generated_Source\PSoC4/Simple_TL_Control_1_Count7_1_PM.c **** 
  20:Generated_Source\PSoC4/Simple_TL_Control_1_Count7_1_PM.c **** 
  21:Generated_Source\PSoC4/Simple_TL_Control_1_Count7_1_PM.c **** Simple_TL_Control_1_Count7_1_BACKUP_STRUCT Simple_TL_Control_1_Count7_1_backup;
  22:Generated_Source\PSoC4/Simple_TL_Control_1_Count7_1_PM.c **** 
  23:Generated_Source\PSoC4/Simple_TL_Control_1_Count7_1_PM.c **** 
  24:Generated_Source\PSoC4/Simple_TL_Control_1_Count7_1_PM.c **** /*******************************************************************************
  25:Generated_Source\PSoC4/Simple_TL_Control_1_Count7_1_PM.c **** * Function Name: Simple_TL_Control_1_Count7_1_SaveConfig
  26:Generated_Source\PSoC4/Simple_TL_Control_1_Count7_1_PM.c **** ********************************************************************************
  27:Generated_Source\PSoC4/Simple_TL_Control_1_Count7_1_PM.c **** *
  28:Generated_Source\PSoC4/Simple_TL_Control_1_Count7_1_PM.c **** * Summary:
  29:Generated_Source\PSoC4/Simple_TL_Control_1_Count7_1_PM.c **** *  This function saves the component configuration and non-retention registers.
ARM GAS  C:\Users\Arturo\AppData\Local\Temp\ccEIaTUh.s 			page 2


  30:Generated_Source\PSoC4/Simple_TL_Control_1_Count7_1_PM.c **** *  This function is called by the Count7_Sleep() function.
  31:Generated_Source\PSoC4/Simple_TL_Control_1_Count7_1_PM.c **** *
  32:Generated_Source\PSoC4/Simple_TL_Control_1_Count7_1_PM.c **** * Parameters:
  33:Generated_Source\PSoC4/Simple_TL_Control_1_Count7_1_PM.c **** *  None
  34:Generated_Source\PSoC4/Simple_TL_Control_1_Count7_1_PM.c **** *
  35:Generated_Source\PSoC4/Simple_TL_Control_1_Count7_1_PM.c **** * Return:
  36:Generated_Source\PSoC4/Simple_TL_Control_1_Count7_1_PM.c **** *  None
  37:Generated_Source\PSoC4/Simple_TL_Control_1_Count7_1_PM.c **** *
  38:Generated_Source\PSoC4/Simple_TL_Control_1_Count7_1_PM.c **** * Global Variables:
  39:Generated_Source\PSoC4/Simple_TL_Control_1_Count7_1_PM.c **** *  Simple_TL_Control_1_Count7_1_backup - used to save component configuration and non-
  40:Generated_Source\PSoC4/Simple_TL_Control_1_Count7_1_PM.c **** *  retention registers before enter sleep mode.
  41:Generated_Source\PSoC4/Simple_TL_Control_1_Count7_1_PM.c **** *
  42:Generated_Source\PSoC4/Simple_TL_Control_1_Count7_1_PM.c **** *******************************************************************************/
  43:Generated_Source\PSoC4/Simple_TL_Control_1_Count7_1_PM.c **** void Simple_TL_Control_1_Count7_1_SaveConfig(void) 
  44:Generated_Source\PSoC4/Simple_TL_Control_1_Count7_1_PM.c **** {
  29              		.loc 1 44 0
  30              		.cfi_startproc
  31              		@ args = 0, pretend = 0, frame = 0
  32              		@ frame_needed = 1, uses_anonymous_args = 0
  33 0000 80B5     		push	{r7, lr}
  34              		.cfi_def_cfa_offset 8
  35              		.cfi_offset 7, -8
  36              		.cfi_offset 14, -4
  37 0002 00AF     		add	r7, sp, #0
  38              		.cfi_def_cfa_register 7
  45:Generated_Source\PSoC4/Simple_TL_Control_1_Count7_1_PM.c ****     Simple_TL_Control_1_Count7_1_backup.count = Simple_TL_Control_1_Count7_1_COUNT_REG;
  39              		.loc 1 45 0
  40 0004 034B     		ldr	r3, .L2
  41 0006 1B78     		ldrb	r3, [r3]
  42 0008 DAB2     		uxtb	r2, r3
  43 000a 034B     		ldr	r3, .L2+4
  44 000c 5A70     		strb	r2, [r3, #1]
  46:Generated_Source\PSoC4/Simple_TL_Control_1_Count7_1_PM.c **** }
  45              		.loc 1 46 0
  46 000e C046     		nop
  47 0010 BD46     		mov	sp, r7
  48              		@ sp needed
  49 0012 80BD     		pop	{r7, pc}
  50              	.L3:
  51              		.align	2
  52              	.L2:
  53 0014 73000F40 		.word	1074724979
  54 0018 00000000 		.word	Simple_TL_Control_1_Count7_1_backup
  55              		.cfi_endproc
  56              	.LFE0:
  57              		.size	Simple_TL_Control_1_Count7_1_SaveConfig, .-Simple_TL_Control_1_Count7_1_SaveConfig
  58              		.section	.text.Simple_TL_Control_1_Count7_1_Sleep,"ax",%progbits
  59              		.align	2
  60              		.global	Simple_TL_Control_1_Count7_1_Sleep
  61              		.code	16
  62              		.thumb_func
  63              		.type	Simple_TL_Control_1_Count7_1_Sleep, %function
  64              	Simple_TL_Control_1_Count7_1_Sleep:
  65              	.LFB1:
  47:Generated_Source\PSoC4/Simple_TL_Control_1_Count7_1_PM.c **** 
  48:Generated_Source\PSoC4/Simple_TL_Control_1_Count7_1_PM.c **** 
  49:Generated_Source\PSoC4/Simple_TL_Control_1_Count7_1_PM.c **** /*******************************************************************************
ARM GAS  C:\Users\Arturo\AppData\Local\Temp\ccEIaTUh.s 			page 3


  50:Generated_Source\PSoC4/Simple_TL_Control_1_Count7_1_PM.c **** * Function Name: Simple_TL_Control_1_Count7_1_Sleep
  51:Generated_Source\PSoC4/Simple_TL_Control_1_Count7_1_PM.c **** ********************************************************************************
  52:Generated_Source\PSoC4/Simple_TL_Control_1_Count7_1_PM.c **** *
  53:Generated_Source\PSoC4/Simple_TL_Control_1_Count7_1_PM.c **** * Summary:
  54:Generated_Source\PSoC4/Simple_TL_Control_1_Count7_1_PM.c **** *  This is the preferred API to prepare the component for low power mode
  55:Generated_Source\PSoC4/Simple_TL_Control_1_Count7_1_PM.c **** *  operation. The Count7_Sleep() API saves the current component state using
  56:Generated_Source\PSoC4/Simple_TL_Control_1_Count7_1_PM.c **** *  Count7_SaveConfig() and disables the counter.
  57:Generated_Source\PSoC4/Simple_TL_Control_1_Count7_1_PM.c **** *
  58:Generated_Source\PSoC4/Simple_TL_Control_1_Count7_1_PM.c **** * Parameters:
  59:Generated_Source\PSoC4/Simple_TL_Control_1_Count7_1_PM.c **** *  None
  60:Generated_Source\PSoC4/Simple_TL_Control_1_Count7_1_PM.c **** *
  61:Generated_Source\PSoC4/Simple_TL_Control_1_Count7_1_PM.c **** * Return:
  62:Generated_Source\PSoC4/Simple_TL_Control_1_Count7_1_PM.c **** *  None
  63:Generated_Source\PSoC4/Simple_TL_Control_1_Count7_1_PM.c **** *
  64:Generated_Source\PSoC4/Simple_TL_Control_1_Count7_1_PM.c **** *******************************************************************************/
  65:Generated_Source\PSoC4/Simple_TL_Control_1_Count7_1_PM.c **** void Simple_TL_Control_1_Count7_1_Sleep(void) 
  66:Generated_Source\PSoC4/Simple_TL_Control_1_Count7_1_PM.c **** {
  66              		.loc 1 66 0
  67              		.cfi_startproc
  68              		@ args = 0, pretend = 0, frame = 0
  69              		@ frame_needed = 1, uses_anonymous_args = 0
  70 0000 80B5     		push	{r7, lr}
  71              		.cfi_def_cfa_offset 8
  72              		.cfi_offset 7, -8
  73              		.cfi_offset 14, -4
  74 0002 00AF     		add	r7, sp, #0
  75              		.cfi_def_cfa_register 7
  67:Generated_Source\PSoC4/Simple_TL_Control_1_Count7_1_PM.c ****     if(0u != (Simple_TL_Control_1_Count7_1_AUX_CONTROL_REG & Simple_TL_Control_1_Count7_1_COUNTER_S
  76              		.loc 1 67 0
  77 0004 0A4B     		ldr	r3, .L7
  78 0006 1B78     		ldrb	r3, [r3]
  79 0008 DBB2     		uxtb	r3, r3
  80 000a 1A00     		movs	r2, r3
  81 000c 2023     		movs	r3, #32
  82 000e 1340     		ands	r3, r2
  83 0010 05D0     		beq	.L5
  68:Generated_Source\PSoC4/Simple_TL_Control_1_Count7_1_PM.c ****     {
  69:Generated_Source\PSoC4/Simple_TL_Control_1_Count7_1_PM.c ****         Simple_TL_Control_1_Count7_1_backup.enableState = 1u;
  84              		.loc 1 69 0
  85 0012 084B     		ldr	r3, .L7+4
  86 0014 0122     		movs	r2, #1
  87 0016 1A70     		strb	r2, [r3]
  70:Generated_Source\PSoC4/Simple_TL_Control_1_Count7_1_PM.c ****         Simple_TL_Control_1_Count7_1_Stop();
  88              		.loc 1 70 0
  89 0018 FFF7FEFF 		bl	Simple_TL_Control_1_Count7_1_Stop
  90 001c 02E0     		b	.L6
  91              	.L5:
  71:Generated_Source\PSoC4/Simple_TL_Control_1_Count7_1_PM.c ****     }
  72:Generated_Source\PSoC4/Simple_TL_Control_1_Count7_1_PM.c ****     else
  73:Generated_Source\PSoC4/Simple_TL_Control_1_Count7_1_PM.c ****     {
  74:Generated_Source\PSoC4/Simple_TL_Control_1_Count7_1_PM.c ****         Simple_TL_Control_1_Count7_1_backup.enableState = 0u;
  92              		.loc 1 74 0
  93 001e 054B     		ldr	r3, .L7+4
  94 0020 0022     		movs	r2, #0
  95 0022 1A70     		strb	r2, [r3]
  96              	.L6:
  75:Generated_Source\PSoC4/Simple_TL_Control_1_Count7_1_PM.c ****     }
ARM GAS  C:\Users\Arturo\AppData\Local\Temp\ccEIaTUh.s 			page 4


  76:Generated_Source\PSoC4/Simple_TL_Control_1_Count7_1_PM.c **** 
  77:Generated_Source\PSoC4/Simple_TL_Control_1_Count7_1_PM.c ****     Simple_TL_Control_1_Count7_1_SaveConfig();
  97              		.loc 1 77 0
  98 0024 FFF7FEFF 		bl	Simple_TL_Control_1_Count7_1_SaveConfig
  78:Generated_Source\PSoC4/Simple_TL_Control_1_Count7_1_PM.c **** }
  99              		.loc 1 78 0
 100 0028 C046     		nop
 101 002a BD46     		mov	sp, r7
 102              		@ sp needed
 103 002c 80BD     		pop	{r7, pc}
 104              	.L8:
 105 002e C046     		.align	2
 106              	.L7:
 107 0030 93000F40 		.word	1074725011
 108 0034 00000000 		.word	Simple_TL_Control_1_Count7_1_backup
 109              		.cfi_endproc
 110              	.LFE1:
 111              		.size	Simple_TL_Control_1_Count7_1_Sleep, .-Simple_TL_Control_1_Count7_1_Sleep
 112              		.section	.text.Simple_TL_Control_1_Count7_1_RestoreConfig,"ax",%progbits
 113              		.align	2
 114              		.global	Simple_TL_Control_1_Count7_1_RestoreConfig
 115              		.code	16
 116              		.thumb_func
 117              		.type	Simple_TL_Control_1_Count7_1_RestoreConfig, %function
 118              	Simple_TL_Control_1_Count7_1_RestoreConfig:
 119              	.LFB2:
  79:Generated_Source\PSoC4/Simple_TL_Control_1_Count7_1_PM.c **** 
  80:Generated_Source\PSoC4/Simple_TL_Control_1_Count7_1_PM.c **** 
  81:Generated_Source\PSoC4/Simple_TL_Control_1_Count7_1_PM.c **** /*******************************************************************************
  82:Generated_Source\PSoC4/Simple_TL_Control_1_Count7_1_PM.c **** * Function Name: Simple_TL_Control_1_Count7_1_RestoreConfig
  83:Generated_Source\PSoC4/Simple_TL_Control_1_Count7_1_PM.c **** ********************************************************************************
  84:Generated_Source\PSoC4/Simple_TL_Control_1_Count7_1_PM.c **** *
  85:Generated_Source\PSoC4/Simple_TL_Control_1_Count7_1_PM.c **** * Summary:
  86:Generated_Source\PSoC4/Simple_TL_Control_1_Count7_1_PM.c **** *  This function restores the component configuration and non-retention
  87:Generated_Source\PSoC4/Simple_TL_Control_1_Count7_1_PM.c **** *  registers. This function is called by the Count7_Wakeup() function.
  88:Generated_Source\PSoC4/Simple_TL_Control_1_Count7_1_PM.c **** *
  89:Generated_Source\PSoC4/Simple_TL_Control_1_Count7_1_PM.c **** * Parameters:
  90:Generated_Source\PSoC4/Simple_TL_Control_1_Count7_1_PM.c **** *  None
  91:Generated_Source\PSoC4/Simple_TL_Control_1_Count7_1_PM.c **** *
  92:Generated_Source\PSoC4/Simple_TL_Control_1_Count7_1_PM.c **** * Return:
  93:Generated_Source\PSoC4/Simple_TL_Control_1_Count7_1_PM.c **** *  None
  94:Generated_Source\PSoC4/Simple_TL_Control_1_Count7_1_PM.c **** *
  95:Generated_Source\PSoC4/Simple_TL_Control_1_Count7_1_PM.c **** * Global Variables:
  96:Generated_Source\PSoC4/Simple_TL_Control_1_Count7_1_PM.c **** *  Simple_TL_Control_1_Count7_1_backup - used to save component configuration and
  97:Generated_Source\PSoC4/Simple_TL_Control_1_Count7_1_PM.c **** *  non-retention registers before exit sleep mode.
  98:Generated_Source\PSoC4/Simple_TL_Control_1_Count7_1_PM.c **** *
  99:Generated_Source\PSoC4/Simple_TL_Control_1_Count7_1_PM.c **** *******************************************************************************/
 100:Generated_Source\PSoC4/Simple_TL_Control_1_Count7_1_PM.c **** void Simple_TL_Control_1_Count7_1_RestoreConfig(void) 
 101:Generated_Source\PSoC4/Simple_TL_Control_1_Count7_1_PM.c **** {
 120              		.loc 1 101 0
 121              		.cfi_startproc
 122              		@ args = 0, pretend = 0, frame = 0
 123              		@ frame_needed = 1, uses_anonymous_args = 0
 124 0000 80B5     		push	{r7, lr}
 125              		.cfi_def_cfa_offset 8
 126              		.cfi_offset 7, -8
 127              		.cfi_offset 14, -4
ARM GAS  C:\Users\Arturo\AppData\Local\Temp\ccEIaTUh.s 			page 5


 128 0002 00AF     		add	r7, sp, #0
 129              		.cfi_def_cfa_register 7
 102:Generated_Source\PSoC4/Simple_TL_Control_1_Count7_1_PM.c ****     Simple_TL_Control_1_Count7_1_COUNT_REG = Simple_TL_Control_1_Count7_1_backup.count;
 130              		.loc 1 102 0
 131 0004 034A     		ldr	r2, .L10
 132 0006 044B     		ldr	r3, .L10+4
 133 0008 5B78     		ldrb	r3, [r3, #1]
 134 000a 1370     		strb	r3, [r2]
 103:Generated_Source\PSoC4/Simple_TL_Control_1_Count7_1_PM.c **** }
 135              		.loc 1 103 0
 136 000c C046     		nop
 137 000e BD46     		mov	sp, r7
 138              		@ sp needed
 139 0010 80BD     		pop	{r7, pc}
 140              	.L11:
 141 0012 C046     		.align	2
 142              	.L10:
 143 0014 73000F40 		.word	1074724979
 144 0018 00000000 		.word	Simple_TL_Control_1_Count7_1_backup
 145              		.cfi_endproc
 146              	.LFE2:
 147              		.size	Simple_TL_Control_1_Count7_1_RestoreConfig, .-Simple_TL_Control_1_Count7_1_RestoreConfig
 148              		.section	.text.Simple_TL_Control_1_Count7_1_Wakeup,"ax",%progbits
 149              		.align	2
 150              		.global	Simple_TL_Control_1_Count7_1_Wakeup
 151              		.code	16
 152              		.thumb_func
 153              		.type	Simple_TL_Control_1_Count7_1_Wakeup, %function
 154              	Simple_TL_Control_1_Count7_1_Wakeup:
 155              	.LFB3:
 104:Generated_Source\PSoC4/Simple_TL_Control_1_Count7_1_PM.c **** 
 105:Generated_Source\PSoC4/Simple_TL_Control_1_Count7_1_PM.c **** 
 106:Generated_Source\PSoC4/Simple_TL_Control_1_Count7_1_PM.c **** /*******************************************************************************
 107:Generated_Source\PSoC4/Simple_TL_Control_1_Count7_1_PM.c **** * Function Name: Simple_TL_Control_1_Count7_1_Wakeup
 108:Generated_Source\PSoC4/Simple_TL_Control_1_Count7_1_PM.c **** ********************************************************************************
 109:Generated_Source\PSoC4/Simple_TL_Control_1_Count7_1_PM.c **** *
 110:Generated_Source\PSoC4/Simple_TL_Control_1_Count7_1_PM.c **** * Summary:
 111:Generated_Source\PSoC4/Simple_TL_Control_1_Count7_1_PM.c **** *  This is the preferred API to restore the component to the state when
 112:Generated_Source\PSoC4/Simple_TL_Control_1_Count7_1_PM.c **** *  Count7_Sleep() was called. The Count7_Wakeup() function calls the
 113:Generated_Source\PSoC4/Simple_TL_Control_1_Count7_1_PM.c **** *  Count7_RestoreConfig() function to restore the configuration.
 114:Generated_Source\PSoC4/Simple_TL_Control_1_Count7_1_PM.c **** *
 115:Generated_Source\PSoC4/Simple_TL_Control_1_Count7_1_PM.c **** * Parameters:
 116:Generated_Source\PSoC4/Simple_TL_Control_1_Count7_1_PM.c **** *  None
 117:Generated_Source\PSoC4/Simple_TL_Control_1_Count7_1_PM.c **** *
 118:Generated_Source\PSoC4/Simple_TL_Control_1_Count7_1_PM.c **** * Return:
 119:Generated_Source\PSoC4/Simple_TL_Control_1_Count7_1_PM.c **** *  None
 120:Generated_Source\PSoC4/Simple_TL_Control_1_Count7_1_PM.c **** *
 121:Generated_Source\PSoC4/Simple_TL_Control_1_Count7_1_PM.c **** *******************************************************************************/
 122:Generated_Source\PSoC4/Simple_TL_Control_1_Count7_1_PM.c **** void Simple_TL_Control_1_Count7_1_Wakeup(void) 
 123:Generated_Source\PSoC4/Simple_TL_Control_1_Count7_1_PM.c **** {
 156              		.loc 1 123 0
 157              		.cfi_startproc
 158              		@ args = 0, pretend = 0, frame = 0
 159              		@ frame_needed = 1, uses_anonymous_args = 0
 160 0000 80B5     		push	{r7, lr}
 161              		.cfi_def_cfa_offset 8
 162              		.cfi_offset 7, -8
ARM GAS  C:\Users\Arturo\AppData\Local\Temp\ccEIaTUh.s 			page 6


 163              		.cfi_offset 14, -4
 164 0002 00AF     		add	r7, sp, #0
 165              		.cfi_def_cfa_register 7
 124:Generated_Source\PSoC4/Simple_TL_Control_1_Count7_1_PM.c ****     Simple_TL_Control_1_Count7_1_RestoreConfig();
 166              		.loc 1 124 0
 167 0004 FFF7FEFF 		bl	Simple_TL_Control_1_Count7_1_RestoreConfig
 125:Generated_Source\PSoC4/Simple_TL_Control_1_Count7_1_PM.c **** 
 126:Generated_Source\PSoC4/Simple_TL_Control_1_Count7_1_PM.c ****     /* Restore enable state */
 127:Generated_Source\PSoC4/Simple_TL_Control_1_Count7_1_PM.c ****     if (Simple_TL_Control_1_Count7_1_backup.enableState != 0u)
 168              		.loc 1 127 0
 169 0008 044B     		ldr	r3, .L15
 170 000a 1B78     		ldrb	r3, [r3]
 171 000c 002B     		cmp	r3, #0
 172 000e 01D0     		beq	.L14
 128:Generated_Source\PSoC4/Simple_TL_Control_1_Count7_1_PM.c ****     {
 129:Generated_Source\PSoC4/Simple_TL_Control_1_Count7_1_PM.c ****         Simple_TL_Control_1_Count7_1_Enable();
 173              		.loc 1 129 0
 174 0010 FFF7FEFF 		bl	Simple_TL_Control_1_Count7_1_Enable
 175              	.L14:
 130:Generated_Source\PSoC4/Simple_TL_Control_1_Count7_1_PM.c ****     }
 131:Generated_Source\PSoC4/Simple_TL_Control_1_Count7_1_PM.c **** }
 176              		.loc 1 131 0
 177 0014 C046     		nop
 178 0016 BD46     		mov	sp, r7
 179              		@ sp needed
 180 0018 80BD     		pop	{r7, pc}
 181              	.L16:
 182 001a C046     		.align	2
 183              	.L15:
 184 001c 00000000 		.word	Simple_TL_Control_1_Count7_1_backup
 185              		.cfi_endproc
 186              	.LFE3:
 187              		.size	Simple_TL_Control_1_Count7_1_Wakeup, .-Simple_TL_Control_1_Count7_1_Wakeup
 188              		.text
 189              	.Letext0:
 190              		.file 2 "Generated_Source\\PSoC4\\cytypes.h"
 191              		.file 3 "Generated_Source\\PSoC4\\Simple_TL_Control_1_Count7_1.h"