ARM GAS  C:\Users\Arturo\AppData\Local\Temp\ccOvYLEb.s 			page 1


   1              		.syntax unified
   2              		.cpu cortex-m0
   3              		.fpu softvfp
   4              		.eabi_attribute 20, 1
   5              		.eabi_attribute 21, 1
   6              		.eabi_attribute 23, 3
   7              		.eabi_attribute 24, 1
   8              		.eabi_attribute 25, 1
   9              		.eabi_attribute 26, 1
  10              		.eabi_attribute 30, 6
  11              		.eabi_attribute 34, 0
  12              		.eabi_attribute 18, 4
  13              		.thumb
  14              		.syntax unified
  15              		.file	"Simple_TL_Control_1_Count7_1.c"
  16              		.text
  17              	.Ltext0:
  18              		.cfi_sections	.debug_frame
  19              		.global	Simple_TL_Control_1_Count7_1_initVar
  20              		.bss
  21              		.type	Simple_TL_Control_1_Count7_1_initVar, %object
  22              		.size	Simple_TL_Control_1_Count7_1_initVar, 1
  23              	Simple_TL_Control_1_Count7_1_initVar:
  24 0000 00       		.space	1
  25              		.section	.text.Simple_TL_Control_1_Count7_1_Init,"ax",%progbits
  26              		.align	2
  27              		.global	Simple_TL_Control_1_Count7_1_Init
  28              		.code	16
  29              		.thumb_func
  30              		.type	Simple_TL_Control_1_Count7_1_Init, %function
  31              	Simple_TL_Control_1_Count7_1_Init:
  32              	.LFB0:
  33              		.file 1 "Generated_Source\\PSoC4\\Simple_TL_Control_1_Count7_1.c"
   1:Generated_Source\PSoC4/Simple_TL_Control_1_Count7_1.c **** /*******************************************************************************
   2:Generated_Source\PSoC4/Simple_TL_Control_1_Count7_1.c **** * File Name: Simple_TL_Control_1_Count7_1.c
   3:Generated_Source\PSoC4/Simple_TL_Control_1_Count7_1.c **** * Version 1.0
   4:Generated_Source\PSoC4/Simple_TL_Control_1_Count7_1.c **** *
   5:Generated_Source\PSoC4/Simple_TL_Control_1_Count7_1.c **** * Description:
   6:Generated_Source\PSoC4/Simple_TL_Control_1_Count7_1.c **** *  This file provides source code for the Count7 component's API.
   7:Generated_Source\PSoC4/Simple_TL_Control_1_Count7_1.c **** *
   8:Generated_Source\PSoC4/Simple_TL_Control_1_Count7_1.c **** * Note:
   9:Generated_Source\PSoC4/Simple_TL_Control_1_Count7_1.c **** *
  10:Generated_Source\PSoC4/Simple_TL_Control_1_Count7_1.c **** ********************************************************************************
  11:Generated_Source\PSoC4/Simple_TL_Control_1_Count7_1.c **** * Copyright 2013, Cypress Semiconductor Corporation.  All rights reserved.
  12:Generated_Source\PSoC4/Simple_TL_Control_1_Count7_1.c **** * You may use this file only in accordance with the license, terms, conditions,
  13:Generated_Source\PSoC4/Simple_TL_Control_1_Count7_1.c **** * disclaimers, and limitations in the end user license agreement accompanying
  14:Generated_Source\PSoC4/Simple_TL_Control_1_Count7_1.c **** * the software package with which this file was provided.
  15:Generated_Source\PSoC4/Simple_TL_Control_1_Count7_1.c **** *******************************************************************************/
  16:Generated_Source\PSoC4/Simple_TL_Control_1_Count7_1.c **** 
  17:Generated_Source\PSoC4/Simple_TL_Control_1_Count7_1.c **** #include "Simple_TL_Control_1_Count7_1.h"
  18:Generated_Source\PSoC4/Simple_TL_Control_1_Count7_1.c **** 
  19:Generated_Source\PSoC4/Simple_TL_Control_1_Count7_1.c **** uint8 Simple_TL_Control_1_Count7_1_initVar = 0u;
  20:Generated_Source\PSoC4/Simple_TL_Control_1_Count7_1.c **** 
  21:Generated_Source\PSoC4/Simple_TL_Control_1_Count7_1.c **** 
  22:Generated_Source\PSoC4/Simple_TL_Control_1_Count7_1.c **** /*******************************************************************************
  23:Generated_Source\PSoC4/Simple_TL_Control_1_Count7_1.c **** * Function Name: Simple_TL_Control_1_Count7_1_Init
  24:Generated_Source\PSoC4/Simple_TL_Control_1_Count7_1.c **** ********************************************************************************
ARM GAS  C:\Users\Arturo\AppData\Local\Temp\ccOvYLEb.s 			page 2


  25:Generated_Source\PSoC4/Simple_TL_Control_1_Count7_1.c **** *
  26:Generated_Source\PSoC4/Simple_TL_Control_1_Count7_1.c **** * Summary:
  27:Generated_Source\PSoC4/Simple_TL_Control_1_Count7_1.c **** *  Initializes or restores the component according to the parameter editor
  28:Generated_Source\PSoC4/Simple_TL_Control_1_Count7_1.c **** *  settings.
  29:Generated_Source\PSoC4/Simple_TL_Control_1_Count7_1.c **** *
  30:Generated_Source\PSoC4/Simple_TL_Control_1_Count7_1.c **** * Parameters:
  31:Generated_Source\PSoC4/Simple_TL_Control_1_Count7_1.c **** *  None
  32:Generated_Source\PSoC4/Simple_TL_Control_1_Count7_1.c **** *
  33:Generated_Source\PSoC4/Simple_TL_Control_1_Count7_1.c **** * Return:
  34:Generated_Source\PSoC4/Simple_TL_Control_1_Count7_1.c **** *  None
  35:Generated_Source\PSoC4/Simple_TL_Control_1_Count7_1.c **** *
  36:Generated_Source\PSoC4/Simple_TL_Control_1_Count7_1.c **** * Theory:
  37:Generated_Source\PSoC4/Simple_TL_Control_1_Count7_1.c **** *  It is not necessary to call Count7_Init() because the Count7_Start() API
  38:Generated_Source\PSoC4/Simple_TL_Control_1_Count7_1.c **** *  calls this function and is the preferred method to begin component
  39:Generated_Source\PSoC4/Simple_TL_Control_1_Count7_1.c **** *  operation.
  40:Generated_Source\PSoC4/Simple_TL_Control_1_Count7_1.c **** *
  41:Generated_Source\PSoC4/Simple_TL_Control_1_Count7_1.c **** *******************************************************************************/
  42:Generated_Source\PSoC4/Simple_TL_Control_1_Count7_1.c **** void Simple_TL_Control_1_Count7_1_Init(void) 
  43:Generated_Source\PSoC4/Simple_TL_Control_1_Count7_1.c **** {
  34              		.loc 1 43 0
  35              		.cfi_startproc
  36              		@ args = 0, pretend = 0, frame = 0
  37              		@ frame_needed = 1, uses_anonymous_args = 0
  38 0000 80B5     		push	{r7, lr}
  39              		.cfi_def_cfa_offset 8
  40              		.cfi_offset 7, -8
  41              		.cfi_offset 14, -4
  42 0002 00AF     		add	r7, sp, #0
  43              		.cfi_def_cfa_register 7
  44:Generated_Source\PSoC4/Simple_TL_Control_1_Count7_1.c ****     /* Set the initial period value from parameter editor */
  45:Generated_Source\PSoC4/Simple_TL_Control_1_Count7_1.c ****     Simple_TL_Control_1_Count7_1_PERIOD_REG = Simple_TL_Control_1_Count7_1_INITIAL_PERIOD;
  44              		.loc 1 45 0
  45 0004 024B     		ldr	r3, .L2
  46 0006 0A22     		movs	r2, #10
  47 0008 1A70     		strb	r2, [r3]
  46:Generated_Source\PSoC4/Simple_TL_Control_1_Count7_1.c **** }
  48              		.loc 1 46 0
  49 000a C046     		nop
  50 000c BD46     		mov	sp, r7
  51              		@ sp needed
  52 000e 80BD     		pop	{r7, pc}
  53              	.L3:
  54              		.align	2
  55              	.L2:
  56 0010 83000F40 		.word	1074724995
  57              		.cfi_endproc
  58              	.LFE0:
  59              		.size	Simple_TL_Control_1_Count7_1_Init, .-Simple_TL_Control_1_Count7_1_Init
  60              		.section	.text.Simple_TL_Control_1_Count7_1_Enable,"ax",%progbits
  61              		.align	2
  62              		.global	Simple_TL_Control_1_Count7_1_Enable
  63              		.code	16
  64              		.thumb_func
  65              		.type	Simple_TL_Control_1_Count7_1_Enable, %function
  66              	Simple_TL_Control_1_Count7_1_Enable:
  67              	.LFB1:
  47:Generated_Source\PSoC4/Simple_TL_Control_1_Count7_1.c **** 
ARM GAS  C:\Users\Arturo\AppData\Local\Temp\ccOvYLEb.s 			page 3


  48:Generated_Source\PSoC4/Simple_TL_Control_1_Count7_1.c **** 
  49:Generated_Source\PSoC4/Simple_TL_Control_1_Count7_1.c **** /*******************************************************************************
  50:Generated_Source\PSoC4/Simple_TL_Control_1_Count7_1.c **** * Function Name: Simple_TL_Control_1_Count7_1_Enable
  51:Generated_Source\PSoC4/Simple_TL_Control_1_Count7_1.c **** ********************************************************************************
  52:Generated_Source\PSoC4/Simple_TL_Control_1_Count7_1.c **** *
  53:Generated_Source\PSoC4/Simple_TL_Control_1_Count7_1.c **** * Summary:
  54:Generated_Source\PSoC4/Simple_TL_Control_1_Count7_1.c **** *  Enables the software enable of the counter.
  55:Generated_Source\PSoC4/Simple_TL_Control_1_Count7_1.c **** *
  56:Generated_Source\PSoC4/Simple_TL_Control_1_Count7_1.c **** * Parameters:
  57:Generated_Source\PSoC4/Simple_TL_Control_1_Count7_1.c **** *  None
  58:Generated_Source\PSoC4/Simple_TL_Control_1_Count7_1.c **** *
  59:Generated_Source\PSoC4/Simple_TL_Control_1_Count7_1.c **** * Return:
  60:Generated_Source\PSoC4/Simple_TL_Control_1_Count7_1.c **** *  None
  61:Generated_Source\PSoC4/Simple_TL_Control_1_Count7_1.c **** *
  62:Generated_Source\PSoC4/Simple_TL_Control_1_Count7_1.c **** * Theory:
  63:Generated_Source\PSoC4/Simple_TL_Control_1_Count7_1.c **** *  It is not necessary to call Count7_Enable() because the Count7_Start() API
  64:Generated_Source\PSoC4/Simple_TL_Control_1_Count7_1.c **** *  calls this function, which is the preferred method to begin component
  65:Generated_Source\PSoC4/Simple_TL_Control_1_Count7_1.c **** *  operation.
  66:Generated_Source\PSoC4/Simple_TL_Control_1_Count7_1.c **** *  This API performs modification of auxiliary control register which is a
  67:Generated_Source\PSoC4/Simple_TL_Control_1_Count7_1.c **** *  shared resource so it is required to disable interrupts until the
  68:Generated_Source\PSoC4/Simple_TL_Control_1_Count7_1.c **** *  modification will complete.
  69:Generated_Source\PSoC4/Simple_TL_Control_1_Count7_1.c **** *
  70:Generated_Source\PSoC4/Simple_TL_Control_1_Count7_1.c **** *******************************************************************************/
  71:Generated_Source\PSoC4/Simple_TL_Control_1_Count7_1.c **** void Simple_TL_Control_1_Count7_1_Enable(void) 
  72:Generated_Source\PSoC4/Simple_TL_Control_1_Count7_1.c **** {
  68              		.loc 1 72 0
  69              		.cfi_startproc
  70              		@ args = 0, pretend = 0, frame = 8
  71              		@ frame_needed = 1, uses_anonymous_args = 0
  72 0000 90B5     		push	{r4, r7, lr}
  73              		.cfi_def_cfa_offset 12
  74              		.cfi_offset 4, -12
  75              		.cfi_offset 7, -8
  76              		.cfi_offset 14, -4
  77 0002 83B0     		sub	sp, sp, #12
  78              		.cfi_def_cfa_offset 24
  79 0004 00AF     		add	r7, sp, #0
  80              		.cfi_def_cfa_register 7
  73:Generated_Source\PSoC4/Simple_TL_Control_1_Count7_1.c ****     uint8 interruptState;
  74:Generated_Source\PSoC4/Simple_TL_Control_1_Count7_1.c **** 
  75:Generated_Source\PSoC4/Simple_TL_Control_1_Count7_1.c ****     interruptState = CyEnterCriticalSection();
  81              		.loc 1 75 0
  82 0006 FC1D     		adds	r4, r7, #7
  83 0008 FFF7FEFF 		bl	CyEnterCriticalSection
  84 000c 0300     		movs	r3, r0
  85 000e 2370     		strb	r3, [r4]
  76:Generated_Source\PSoC4/Simple_TL_Control_1_Count7_1.c ****     /* Set the counter start bit in auxiliary control. If routed enable
  77:Generated_Source\PSoC4/Simple_TL_Control_1_Count7_1.c ****     * isn't used then this will immediately star the Count7 operation.
  78:Generated_Source\PSoC4/Simple_TL_Control_1_Count7_1.c ****     */
  79:Generated_Source\PSoC4/Simple_TL_Control_1_Count7_1.c ****     Simple_TL_Control_1_Count7_1_AUX_CONTROL_REG |= Simple_TL_Control_1_Count7_1_COUNTER_START;
  86              		.loc 1 79 0
  87 0010 084A     		ldr	r2, .L5
  88 0012 084B     		ldr	r3, .L5
  89 0014 1B78     		ldrb	r3, [r3]
  90 0016 DBB2     		uxtb	r3, r3
  91 0018 2021     		movs	r1, #32
  92 001a 0B43     		orrs	r3, r1
ARM GAS  C:\Users\Arturo\AppData\Local\Temp\ccOvYLEb.s 			page 4


  93 001c DBB2     		uxtb	r3, r3
  94 001e 1370     		strb	r3, [r2]
  80:Generated_Source\PSoC4/Simple_TL_Control_1_Count7_1.c **** 
  81:Generated_Source\PSoC4/Simple_TL_Control_1_Count7_1.c ****     CyExitCriticalSection(interruptState);
  95              		.loc 1 81 0
  96 0020 FB1D     		adds	r3, r7, #7
  97 0022 1B78     		ldrb	r3, [r3]
  98 0024 1800     		movs	r0, r3
  99 0026 FFF7FEFF 		bl	CyExitCriticalSection
  82:Generated_Source\PSoC4/Simple_TL_Control_1_Count7_1.c **** }
 100              		.loc 1 82 0
 101 002a C046     		nop
 102 002c BD46     		mov	sp, r7
 103 002e 03B0     		add	sp, sp, #12
 104              		@ sp needed
 105 0030 90BD     		pop	{r4, r7, pc}
 106              	.L6:
 107 0032 C046     		.align	2
 108              	.L5:
 109 0034 93000F40 		.word	1074725011
 110              		.cfi_endproc
 111              	.LFE1:
 112              		.size	Simple_TL_Control_1_Count7_1_Enable, .-Simple_TL_Control_1_Count7_1_Enable
 113              		.section	.text.Simple_TL_Control_1_Count7_1_Start,"ax",%progbits
 114              		.align	2
 115              		.global	Simple_TL_Control_1_Count7_1_Start
 116              		.code	16
 117              		.thumb_func
 118              		.type	Simple_TL_Control_1_Count7_1_Start, %function
 119              	Simple_TL_Control_1_Count7_1_Start:
 120              	.LFB2:
  83:Generated_Source\PSoC4/Simple_TL_Control_1_Count7_1.c **** 
  84:Generated_Source\PSoC4/Simple_TL_Control_1_Count7_1.c **** 
  85:Generated_Source\PSoC4/Simple_TL_Control_1_Count7_1.c **** /*******************************************************************************
  86:Generated_Source\PSoC4/Simple_TL_Control_1_Count7_1.c **** * Function Name: Simple_TL_Control_1_Count7_1_Start
  87:Generated_Source\PSoC4/Simple_TL_Control_1_Count7_1.c **** ********************************************************************************
  88:Generated_Source\PSoC4/Simple_TL_Control_1_Count7_1.c **** *
  89:Generated_Source\PSoC4/Simple_TL_Control_1_Count7_1.c **** * Summary:
  90:Generated_Source\PSoC4/Simple_TL_Control_1_Count7_1.c **** *  Performs all of the required initialization for the component and enables
  91:Generated_Source\PSoC4/Simple_TL_Control_1_Count7_1.c **** *  the counter. The first time the routine is executed, the period is set as
  92:Generated_Source\PSoC4/Simple_TL_Control_1_Count7_1.c **** *  configured in the customizer. When called to restart the counter following a
  93:Generated_Source\PSoC4/Simple_TL_Control_1_Count7_1.c **** *  Count7_Stop() call, the current period value is retained.
  94:Generated_Source\PSoC4/Simple_TL_Control_1_Count7_1.c **** *
  95:Generated_Source\PSoC4/Simple_TL_Control_1_Count7_1.c **** * Parameters:
  96:Generated_Source\PSoC4/Simple_TL_Control_1_Count7_1.c **** *  None.
  97:Generated_Source\PSoC4/Simple_TL_Control_1_Count7_1.c **** *
  98:Generated_Source\PSoC4/Simple_TL_Control_1_Count7_1.c **** * Global Variables:
  99:Generated_Source\PSoC4/Simple_TL_Control_1_Count7_1.c **** *  Simple_TL_Control_1_Count7_1_initVar - global variable.
 100:Generated_Source\PSoC4/Simple_TL_Control_1_Count7_1.c **** *
 101:Generated_Source\PSoC4/Simple_TL_Control_1_Count7_1.c **** * Return:
 102:Generated_Source\PSoC4/Simple_TL_Control_1_Count7_1.c **** *  None.
 103:Generated_Source\PSoC4/Simple_TL_Control_1_Count7_1.c **** *
 104:Generated_Source\PSoC4/Simple_TL_Control_1_Count7_1.c **** *******************************************************************************/
 105:Generated_Source\PSoC4/Simple_TL_Control_1_Count7_1.c **** void Simple_TL_Control_1_Count7_1_Start(void) 
 106:Generated_Source\PSoC4/Simple_TL_Control_1_Count7_1.c **** {
 121              		.loc 1 106 0
 122              		.cfi_startproc
ARM GAS  C:\Users\Arturo\AppData\Local\Temp\ccOvYLEb.s 			page 5


 123              		@ args = 0, pretend = 0, frame = 0
 124              		@ frame_needed = 1, uses_anonymous_args = 0
 125 0000 80B5     		push	{r7, lr}
 126              		.cfi_def_cfa_offset 8
 127              		.cfi_offset 7, -8
 128              		.cfi_offset 14, -4
 129 0002 00AF     		add	r7, sp, #0
 130              		.cfi_def_cfa_register 7
 107:Generated_Source\PSoC4/Simple_TL_Control_1_Count7_1.c ****     /* If not initialized then perform initialization */
 108:Generated_Source\PSoC4/Simple_TL_Control_1_Count7_1.c ****     if(Simple_TL_Control_1_Count7_1_initVar == 0u)
 131              		.loc 1 108 0
 132 0004 064B     		ldr	r3, .L9
 133 0006 1B78     		ldrb	r3, [r3]
 134 0008 002B     		cmp	r3, #0
 135 000a 04D1     		bne	.L8
 109:Generated_Source\PSoC4/Simple_TL_Control_1_Count7_1.c ****     {
 110:Generated_Source\PSoC4/Simple_TL_Control_1_Count7_1.c ****         Simple_TL_Control_1_Count7_1_Init();
 136              		.loc 1 110 0
 137 000c FFF7FEFF 		bl	Simple_TL_Control_1_Count7_1_Init
 111:Generated_Source\PSoC4/Simple_TL_Control_1_Count7_1.c ****         Simple_TL_Control_1_Count7_1_initVar = 1u;
 138              		.loc 1 111 0
 139 0010 034B     		ldr	r3, .L9
 140 0012 0122     		movs	r2, #1
 141 0014 1A70     		strb	r2, [r3]
 142              	.L8:
 112:Generated_Source\PSoC4/Simple_TL_Control_1_Count7_1.c ****     }
 113:Generated_Source\PSoC4/Simple_TL_Control_1_Count7_1.c **** 
 114:Generated_Source\PSoC4/Simple_TL_Control_1_Count7_1.c ****     /* Enable Count7 */
 115:Generated_Source\PSoC4/Simple_TL_Control_1_Count7_1.c ****     Simple_TL_Control_1_Count7_1_Enable();
 143              		.loc 1 115 0
 144 0016 FFF7FEFF 		bl	Simple_TL_Control_1_Count7_1_Enable
 116:Generated_Source\PSoC4/Simple_TL_Control_1_Count7_1.c **** }
 145              		.loc 1 116 0
 146 001a C046     		nop
 147 001c BD46     		mov	sp, r7
 148              		@ sp needed
 149 001e 80BD     		pop	{r7, pc}
 150              	.L10:
 151              		.align	2
 152              	.L9:
 153 0020 00000000 		.word	Simple_TL_Control_1_Count7_1_initVar
 154              		.cfi_endproc
 155              	.LFE2:
 156              		.size	Simple_TL_Control_1_Count7_1_Start, .-Simple_TL_Control_1_Count7_1_Start
 157              		.section	.text.Simple_TL_Control_1_Count7_1_Stop,"ax",%progbits
 158              		.align	2
 159              		.global	Simple_TL_Control_1_Count7_1_Stop
 160              		.code	16
 161              		.thumb_func
 162              		.type	Simple_TL_Control_1_Count7_1_Stop, %function
 163              	Simple_TL_Control_1_Count7_1_Stop:
 164              	.LFB3:
 117:Generated_Source\PSoC4/Simple_TL_Control_1_Count7_1.c **** 
 118:Generated_Source\PSoC4/Simple_TL_Control_1_Count7_1.c **** 
 119:Generated_Source\PSoC4/Simple_TL_Control_1_Count7_1.c **** /*******************************************************************************
 120:Generated_Source\PSoC4/Simple_TL_Control_1_Count7_1.c **** * Function Name: Simple_TL_Control_1_Count7_1_Stop
 121:Generated_Source\PSoC4/Simple_TL_Control_1_Count7_1.c **** ********************************************************************************
ARM GAS  C:\Users\Arturo\AppData\Local\Temp\ccOvYLEb.s 			page 6


 122:Generated_Source\PSoC4/Simple_TL_Control_1_Count7_1.c **** *
 123:Generated_Source\PSoC4/Simple_TL_Control_1_Count7_1.c **** * Summary:
 124:Generated_Source\PSoC4/Simple_TL_Control_1_Count7_1.c **** *  Disables the software enable of the counter.
 125:Generated_Source\PSoC4/Simple_TL_Control_1_Count7_1.c **** *
 126:Generated_Source\PSoC4/Simple_TL_Control_1_Count7_1.c **** * Parameters:
 127:Generated_Source\PSoC4/Simple_TL_Control_1_Count7_1.c **** *  None
 128:Generated_Source\PSoC4/Simple_TL_Control_1_Count7_1.c **** *
 129:Generated_Source\PSoC4/Simple_TL_Control_1_Count7_1.c **** * Return:
 130:Generated_Source\PSoC4/Simple_TL_Control_1_Count7_1.c **** *  None
 131:Generated_Source\PSoC4/Simple_TL_Control_1_Count7_1.c **** *
 132:Generated_Source\PSoC4/Simple_TL_Control_1_Count7_1.c **** *******************************************************************************/
 133:Generated_Source\PSoC4/Simple_TL_Control_1_Count7_1.c **** void Simple_TL_Control_1_Count7_1_Stop(void) 
 134:Generated_Source\PSoC4/Simple_TL_Control_1_Count7_1.c **** {
 165              		.loc 1 134 0
 166              		.cfi_startproc
 167              		@ args = 0, pretend = 0, frame = 8
 168              		@ frame_needed = 1, uses_anonymous_args = 0
 169 0000 90B5     		push	{r4, r7, lr}
 170              		.cfi_def_cfa_offset 12
 171              		.cfi_offset 4, -12
 172              		.cfi_offset 7, -8
 173              		.cfi_offset 14, -4
 174 0002 83B0     		sub	sp, sp, #12
 175              		.cfi_def_cfa_offset 24
 176 0004 00AF     		add	r7, sp, #0
 177              		.cfi_def_cfa_register 7
 135:Generated_Source\PSoC4/Simple_TL_Control_1_Count7_1.c ****     uint8 interruptState;
 136:Generated_Source\PSoC4/Simple_TL_Control_1_Count7_1.c **** 
 137:Generated_Source\PSoC4/Simple_TL_Control_1_Count7_1.c ****     interruptState = CyEnterCriticalSection();
 178              		.loc 1 137 0
 179 0006 FC1D     		adds	r4, r7, #7
 180 0008 FFF7FEFF 		bl	CyEnterCriticalSection
 181 000c 0300     		movs	r3, r0
 182 000e 2370     		strb	r3, [r4]
 138:Generated_Source\PSoC4/Simple_TL_Control_1_Count7_1.c ****     /* Clear the counter start bit in auxiliary control. */
 139:Generated_Source\PSoC4/Simple_TL_Control_1_Count7_1.c ****     Simple_TL_Control_1_Count7_1_AUX_CONTROL_REG &= (uint8) ~((uint8) Simple_TL_Control_1_Count7_1_
 183              		.loc 1 139 0
 184 0010 084A     		ldr	r2, .L12
 185 0012 084B     		ldr	r3, .L12
 186 0014 1B78     		ldrb	r3, [r3]
 187 0016 DBB2     		uxtb	r3, r3
 188 0018 2021     		movs	r1, #32
 189 001a 8B43     		bics	r3, r1
 190 001c DBB2     		uxtb	r3, r3
 191 001e 1370     		strb	r3, [r2]
 140:Generated_Source\PSoC4/Simple_TL_Control_1_Count7_1.c **** 
 141:Generated_Source\PSoC4/Simple_TL_Control_1_Count7_1.c ****     CyExitCriticalSection(interruptState);
 192              		.loc 1 141 0
 193 0020 FB1D     		adds	r3, r7, #7
 194 0022 1B78     		ldrb	r3, [r3]
 195 0024 1800     		movs	r0, r3
 196 0026 FFF7FEFF 		bl	CyExitCriticalSection
 142:Generated_Source\PSoC4/Simple_TL_Control_1_Count7_1.c **** }
 197              		.loc 1 142 0
 198 002a C046     		nop
 199 002c BD46     		mov	sp, r7
 200 002e 03B0     		add	sp, sp, #12
ARM GAS  C:\Users\Arturo\AppData\Local\Temp\ccOvYLEb.s 			page 7


 201              		@ sp needed
 202 0030 90BD     		pop	{r4, r7, pc}
 203              	.L13:
 204 0032 C046     		.align	2
 205              	.L12:
 206 0034 93000F40 		.word	1074725011
 207              		.cfi_endproc
 208              	.LFE3:
 209              		.size	Simple_TL_Control_1_Count7_1_Stop, .-Simple_TL_Control_1_Count7_1_Stop
 210              		.section	.text.Simple_TL_Control_1_Count7_1_WriteCounter,"ax",%progbits
 211              		.align	2
 212              		.global	Simple_TL_Control_1_Count7_1_WriteCounter
 213              		.code	16
 214              		.thumb_func
 215              		.type	Simple_TL_Control_1_Count7_1_WriteCounter, %function
 216              	Simple_TL_Control_1_Count7_1_WriteCounter:
 217              	.LFB4:
 143:Generated_Source\PSoC4/Simple_TL_Control_1_Count7_1.c **** 
 144:Generated_Source\PSoC4/Simple_TL_Control_1_Count7_1.c **** 
 145:Generated_Source\PSoC4/Simple_TL_Control_1_Count7_1.c **** /*******************************************************************************
 146:Generated_Source\PSoC4/Simple_TL_Control_1_Count7_1.c **** * Function Name: Simple_TL_Control_1_Count7_1_WriteCounter
 147:Generated_Source\PSoC4/Simple_TL_Control_1_Count7_1.c **** ********************************************************************************
 148:Generated_Source\PSoC4/Simple_TL_Control_1_Count7_1.c **** *
 149:Generated_Source\PSoC4/Simple_TL_Control_1_Count7_1.c **** * Summary:
 150:Generated_Source\PSoC4/Simple_TL_Control_1_Count7_1.c **** *  This function writes the counter directly. The counter should be disabled
 151:Generated_Source\PSoC4/Simple_TL_Control_1_Count7_1.c **** *  before calling this function.
 152:Generated_Source\PSoC4/Simple_TL_Control_1_Count7_1.c **** *
 153:Generated_Source\PSoC4/Simple_TL_Control_1_Count7_1.c **** * Parameters:
 154:Generated_Source\PSoC4/Simple_TL_Control_1_Count7_1.c **** *  count - Value to be written to counter.
 155:Generated_Source\PSoC4/Simple_TL_Control_1_Count7_1.c **** *
 156:Generated_Source\PSoC4/Simple_TL_Control_1_Count7_1.c **** * Return:
 157:Generated_Source\PSoC4/Simple_TL_Control_1_Count7_1.c **** *  None
 158:Generated_Source\PSoC4/Simple_TL_Control_1_Count7_1.c **** *
 159:Generated_Source\PSoC4/Simple_TL_Control_1_Count7_1.c **** *******************************************************************************/
 160:Generated_Source\PSoC4/Simple_TL_Control_1_Count7_1.c **** void Simple_TL_Control_1_Count7_1_WriteCounter(uint8 count) 
 161:Generated_Source\PSoC4/Simple_TL_Control_1_Count7_1.c **** {
 218              		.loc 1 161 0
 219              		.cfi_startproc
 220              		@ args = 0, pretend = 0, frame = 8
 221              		@ frame_needed = 1, uses_anonymous_args = 0
 222 0000 80B5     		push	{r7, lr}
 223              		.cfi_def_cfa_offset 8
 224              		.cfi_offset 7, -8
 225              		.cfi_offset 14, -4
 226 0002 82B0     		sub	sp, sp, #8
 227              		.cfi_def_cfa_offset 16
 228 0004 00AF     		add	r7, sp, #0
 229              		.cfi_def_cfa_register 7
 230 0006 0200     		movs	r2, r0
 231 0008 FB1D     		adds	r3, r7, #7
 232 000a 1A70     		strb	r2, [r3]
 162:Generated_Source\PSoC4/Simple_TL_Control_1_Count7_1.c ****     Simple_TL_Control_1_Count7_1_COUNT_REG = (count & Simple_TL_Control_1_Count7_1_COUNT_7BIT_MASK)
 233              		.loc 1 162 0
 234 000c 054A     		ldr	r2, .L15
 235 000e FB1D     		adds	r3, r7, #7
 236 0010 1B78     		ldrb	r3, [r3]
 237 0012 7F21     		movs	r1, #127
ARM GAS  C:\Users\Arturo\AppData\Local\Temp\ccOvYLEb.s 			page 8


 238 0014 0B40     		ands	r3, r1
 239 0016 DBB2     		uxtb	r3, r3
 240 0018 1370     		strb	r3, [r2]
 163:Generated_Source\PSoC4/Simple_TL_Control_1_Count7_1.c **** }
 241              		.loc 1 163 0
 242 001a C046     		nop
 243 001c BD46     		mov	sp, r7
 244 001e 02B0     		add	sp, sp, #8
 245              		@ sp needed
 246 0020 80BD     		pop	{r7, pc}
 247              	.L16:
 248 0022 C046     		.align	2
 249              	.L15:
 250 0024 73000F40 		.word	1074724979
 251              		.cfi_endproc
 252              	.LFE4:
 253              		.size	Simple_TL_Control_1_Count7_1_WriteCounter, .-Simple_TL_Control_1_Count7_1_WriteCounter
 254              		.section	.text.Simple_TL_Control_1_Count7_1_ReadCounter,"ax",%progbits
 255              		.align	2
 256              		.global	Simple_TL_Control_1_Count7_1_ReadCounter
 257              		.code	16
 258              		.thumb_func
 259              		.type	Simple_TL_Control_1_Count7_1_ReadCounter, %function
 260              	Simple_TL_Control_1_Count7_1_ReadCounter:
 261              	.LFB5:
 164:Generated_Source\PSoC4/Simple_TL_Control_1_Count7_1.c **** 
 165:Generated_Source\PSoC4/Simple_TL_Control_1_Count7_1.c **** 
 166:Generated_Source\PSoC4/Simple_TL_Control_1_Count7_1.c **** /*******************************************************************************
 167:Generated_Source\PSoC4/Simple_TL_Control_1_Count7_1.c **** * Function Name: Simple_TL_Control_1_Count7_1_ReadCounter
 168:Generated_Source\PSoC4/Simple_TL_Control_1_Count7_1.c **** ********************************************************************************
 169:Generated_Source\PSoC4/Simple_TL_Control_1_Count7_1.c **** *
 170:Generated_Source\PSoC4/Simple_TL_Control_1_Count7_1.c **** * Summary:
 171:Generated_Source\PSoC4/Simple_TL_Control_1_Count7_1.c **** *  This function reads the counter value.
 172:Generated_Source\PSoC4/Simple_TL_Control_1_Count7_1.c **** *
 173:Generated_Source\PSoC4/Simple_TL_Control_1_Count7_1.c **** * Parameters:
 174:Generated_Source\PSoC4/Simple_TL_Control_1_Count7_1.c **** *  None
 175:Generated_Source\PSoC4/Simple_TL_Control_1_Count7_1.c **** *
 176:Generated_Source\PSoC4/Simple_TL_Control_1_Count7_1.c **** * Return:
 177:Generated_Source\PSoC4/Simple_TL_Control_1_Count7_1.c **** *  None
 178:Generated_Source\PSoC4/Simple_TL_Control_1_Count7_1.c **** *
 179:Generated_Source\PSoC4/Simple_TL_Control_1_Count7_1.c **** *******************************************************************************/
 180:Generated_Source\PSoC4/Simple_TL_Control_1_Count7_1.c **** uint8 Simple_TL_Control_1_Count7_1_ReadCounter(void) 
 181:Generated_Source\PSoC4/Simple_TL_Control_1_Count7_1.c **** {
 262              		.loc 1 181 0
 263              		.cfi_startproc
 264              		@ args = 0, pretend = 0, frame = 0
 265              		@ frame_needed = 1, uses_anonymous_args = 0
 266 0000 80B5     		push	{r7, lr}
 267              		.cfi_def_cfa_offset 8
 268              		.cfi_offset 7, -8
 269              		.cfi_offset 14, -4
 270 0002 00AF     		add	r7, sp, #0
 271              		.cfi_def_cfa_register 7
 182:Generated_Source\PSoC4/Simple_TL_Control_1_Count7_1.c ****     return(Simple_TL_Control_1_Count7_1_COUNT_REG & Simple_TL_Control_1_Count7_1_COUNT_7BIT_MASK);
 272              		.loc 1 182 0
 273 0004 044B     		ldr	r3, .L19
 274 0006 1B78     		ldrb	r3, [r3]
ARM GAS  C:\Users\Arturo\AppData\Local\Temp\ccOvYLEb.s 			page 9


 275 0008 DBB2     		uxtb	r3, r3
 276 000a 7F22     		movs	r2, #127
 277 000c 1340     		ands	r3, r2
 278 000e DBB2     		uxtb	r3, r3
 183:Generated_Source\PSoC4/Simple_TL_Control_1_Count7_1.c **** }
 279              		.loc 1 183 0
 280 0010 1800     		movs	r0, r3
 281 0012 BD46     		mov	sp, r7
 282              		@ sp needed
 283 0014 80BD     		pop	{r7, pc}
 284              	.L20:
 285 0016 C046     		.align	2
 286              	.L19:
 287 0018 73000F40 		.word	1074724979
 288              		.cfi_endproc
 289              	.LFE5:
 290              		.size	Simple_TL_Control_1_Count7_1_ReadCounter, .-Simple_TL_Control_1_Count7_1_ReadCounter
 291              		.section	.text.Simple_TL_Control_1_Count7_1_WritePeriod,"ax",%progbits
 292              		.align	2
 293              		.global	Simple_TL_Control_1_Count7_1_WritePeriod
 294              		.code	16
 295              		.thumb_func
 296              		.type	Simple_TL_Control_1_Count7_1_WritePeriod, %function
 297              	Simple_TL_Control_1_Count7_1_WritePeriod:
 298              	.LFB6:
 184:Generated_Source\PSoC4/Simple_TL_Control_1_Count7_1.c **** 
 185:Generated_Source\PSoC4/Simple_TL_Control_1_Count7_1.c **** 
 186:Generated_Source\PSoC4/Simple_TL_Control_1_Count7_1.c **** /*******************************************************************************
 187:Generated_Source\PSoC4/Simple_TL_Control_1_Count7_1.c **** * Function Name: Simple_TL_Control_1_Count7_1_WritePeriod
 188:Generated_Source\PSoC4/Simple_TL_Control_1_Count7_1.c **** ********************************************************************************
 189:Generated_Source\PSoC4/Simple_TL_Control_1_Count7_1.c **** *
 190:Generated_Source\PSoC4/Simple_TL_Control_1_Count7_1.c **** * Summary:
 191:Generated_Source\PSoC4/Simple_TL_Control_1_Count7_1.c **** *  This function writes the period register. The actual period is one greater
 192:Generated_Source\PSoC4/Simple_TL_Control_1_Count7_1.c **** *  than the value in the period register since the counting sequence starts
 193:Generated_Source\PSoC4/Simple_TL_Control_1_Count7_1.c **** *  with the period register and counts down to 0 inclusive. The period of the
 194:Generated_Source\PSoC4/Simple_TL_Control_1_Count7_1.c **** *  counter output does not change until the counter is reloaded following the
 195:Generated_Source\PSoC4/Simple_TL_Control_1_Count7_1.c **** *  terminal count value of 0 or due to a hardware load signal.
 196:Generated_Source\PSoC4/Simple_TL_Control_1_Count7_1.c **** *
 197:Generated_Source\PSoC4/Simple_TL_Control_1_Count7_1.c **** * Parameters:
 198:Generated_Source\PSoC4/Simple_TL_Control_1_Count7_1.c **** *  period - Period value to be written.
 199:Generated_Source\PSoC4/Simple_TL_Control_1_Count7_1.c **** *
 200:Generated_Source\PSoC4/Simple_TL_Control_1_Count7_1.c **** * Return:
 201:Generated_Source\PSoC4/Simple_TL_Control_1_Count7_1.c **** *  None
 202:Generated_Source\PSoC4/Simple_TL_Control_1_Count7_1.c **** *
 203:Generated_Source\PSoC4/Simple_TL_Control_1_Count7_1.c **** *******************************************************************************/
 204:Generated_Source\PSoC4/Simple_TL_Control_1_Count7_1.c **** void Simple_TL_Control_1_Count7_1_WritePeriod(uint8 period) 
 205:Generated_Source\PSoC4/Simple_TL_Control_1_Count7_1.c **** {
 299              		.loc 1 205 0
 300              		.cfi_startproc
 301              		@ args = 0, pretend = 0, frame = 8
 302              		@ frame_needed = 1, uses_anonymous_args = 0
 303 0000 80B5     		push	{r7, lr}
 304              		.cfi_def_cfa_offset 8
 305              		.cfi_offset 7, -8
 306              		.cfi_offset 14, -4
 307 0002 82B0     		sub	sp, sp, #8
 308              		.cfi_def_cfa_offset 16
ARM GAS  C:\Users\Arturo\AppData\Local\Temp\ccOvYLEb.s 			page 10


 309 0004 00AF     		add	r7, sp, #0
 310              		.cfi_def_cfa_register 7
 311 0006 0200     		movs	r2, r0
 312 0008 FB1D     		adds	r3, r7, #7
 313 000a 1A70     		strb	r2, [r3]
 206:Generated_Source\PSoC4/Simple_TL_Control_1_Count7_1.c ****     Simple_TL_Control_1_Count7_1_PERIOD_REG = period;
 314              		.loc 1 206 0
 315 000c 034A     		ldr	r2, .L22
 316 000e FB1D     		adds	r3, r7, #7
 317 0010 1B78     		ldrb	r3, [r3]
 318 0012 1370     		strb	r3, [r2]
 207:Generated_Source\PSoC4/Simple_TL_Control_1_Count7_1.c **** }
 319              		.loc 1 207 0
 320 0014 C046     		nop
 321 0016 BD46     		mov	sp, r7
 322 0018 02B0     		add	sp, sp, #8
 323              		@ sp needed
 324 001a 80BD     		pop	{r7, pc}
 325              	.L23:
 326              		.align	2
 327              	.L22:
 328 001c 83000F40 		.word	1074724995
 329              		.cfi_endproc
 330              	.LFE6:
 331              		.size	Simple_TL_Control_1_Count7_1_WritePeriod, .-Simple_TL_Control_1_Count7_1_WritePeriod
 332              		.section	.text.Simple_TL_Control_1_Count7_1_ReadPeriod,"ax",%progbits
 333              		.align	2
 334              		.global	Simple_TL_Control_1_Count7_1_ReadPeriod
 335              		.code	16
 336              		.thumb_func
 337              		.type	Simple_TL_Control_1_Count7_1_ReadPeriod, %function
 338              	Simple_TL_Control_1_Count7_1_ReadPeriod:
 339              	.LFB7:
 208:Generated_Source\PSoC4/Simple_TL_Control_1_Count7_1.c **** 
 209:Generated_Source\PSoC4/Simple_TL_Control_1_Count7_1.c **** 
 210:Generated_Source\PSoC4/Simple_TL_Control_1_Count7_1.c **** /*******************************************************************************
 211:Generated_Source\PSoC4/Simple_TL_Control_1_Count7_1.c **** * Function Name: Simple_TL_Control_1_Count7_1_ReadPeriod
 212:Generated_Source\PSoC4/Simple_TL_Control_1_Count7_1.c **** ********************************************************************************
 213:Generated_Source\PSoC4/Simple_TL_Control_1_Count7_1.c **** *
 214:Generated_Source\PSoC4/Simple_TL_Control_1_Count7_1.c **** * Summary:
 215:Generated_Source\PSoC4/Simple_TL_Control_1_Count7_1.c **** *  This function reads the period register.
 216:Generated_Source\PSoC4/Simple_TL_Control_1_Count7_1.c **** *
 217:Generated_Source\PSoC4/Simple_TL_Control_1_Count7_1.c **** * Parameters:
 218:Generated_Source\PSoC4/Simple_TL_Control_1_Count7_1.c **** *  None
 219:Generated_Source\PSoC4/Simple_TL_Control_1_Count7_1.c **** *
 220:Generated_Source\PSoC4/Simple_TL_Control_1_Count7_1.c **** * Return:
 221:Generated_Source\PSoC4/Simple_TL_Control_1_Count7_1.c **** *  uint8 - Current period value.
 222:Generated_Source\PSoC4/Simple_TL_Control_1_Count7_1.c **** *
 223:Generated_Source\PSoC4/Simple_TL_Control_1_Count7_1.c **** *******************************************************************************/
 224:Generated_Source\PSoC4/Simple_TL_Control_1_Count7_1.c **** uint8 Simple_TL_Control_1_Count7_1_ReadPeriod(void) 
 225:Generated_Source\PSoC4/Simple_TL_Control_1_Count7_1.c **** {
 340              		.loc 1 225 0
 341              		.cfi_startproc
 342              		@ args = 0, pretend = 0, frame = 0
 343              		@ frame_needed = 1, uses_anonymous_args = 0
 344 0000 80B5     		push	{r7, lr}
 345              		.cfi_def_cfa_offset 8
ARM GAS  C:\Users\Arturo\AppData\Local\Temp\ccOvYLEb.s 			page 11


 346              		.cfi_offset 7, -8
 347              		.cfi_offset 14, -4
 348 0002 00AF     		add	r7, sp, #0
 349              		.cfi_def_cfa_register 7
 226:Generated_Source\PSoC4/Simple_TL_Control_1_Count7_1.c ****     return(Simple_TL_Control_1_Count7_1_PERIOD_REG);
 350              		.loc 1 226 0
 351 0004 024B     		ldr	r3, .L26
 352 0006 1B78     		ldrb	r3, [r3]
 353 0008 DBB2     		uxtb	r3, r3
 227:Generated_Source\PSoC4/Simple_TL_Control_1_Count7_1.c **** }
 354              		.loc 1 227 0
 355 000a 1800     		movs	r0, r3
 356 000c BD46     		mov	sp, r7
 357              		@ sp needed
 358 000e 80BD     		pop	{r7, pc}
 359              	.L27:
 360              		.align	2
 361              	.L26:
 362 0010 83000F40 		.word	1074724995
 363              		.cfi_endproc
 364              	.LFE7:
 365              		.size	Simple_TL_Control_1_Count7_1_ReadPeriod, .-Simple_TL_Control_1_Count7_1_ReadPeriod
 366              		.text
 367              	.Letext0:
 368              		.file 2 "Generated_Source\\PSoC4\\cytypes.h"